
;CodeVisionAVR C Compiler V2.05.6 
;(C) Copyright 1998-2012 Pavel Haiduc, HP InfoTech s.r.l.
;http://www.hpinfotech.com

;Chip type              : ATmega8
;Program type           : Application
;Clock frequency        : 8,000000 MHz
;Memory model           : Small
;Optimize for           : Size
;(s)printf features     : int, width
;(s)scanf features      : int, width
;External RAM size      : 0
;Data Stack size        : 750 byte(s)
;Heap size              : 0 byte(s)
;Promote 'char' to 'int': Yes
;'char' is unsigned     : Yes
;8 bit enums            : Yes
;Global 'const' stored in FLASH: No
;Enhanced function parameter passing: Yes
;Enhanced core instructions: On
;Automatic register allocation for global variables: On
;Smart register allocation: On

	#pragma AVRPART ADMIN PART_NAME ATmega8
	#pragma AVRPART MEMORY PROG_FLASH 8192
	#pragma AVRPART MEMORY EEPROM 512
	#pragma AVRPART MEMORY INT_SRAM SIZE 1024
	#pragma AVRPART MEMORY INT_SRAM START_ADDR 0x60

	.LISTMAC
	.EQU UDRE=0x5
	.EQU RXC=0x7
	.EQU USR=0xB
	.EQU UDR=0xC
	.EQU SPSR=0xE
	.EQU SPDR=0xF
	.EQU EERE=0x0
	.EQU EEWE=0x1
	.EQU EEMWE=0x2
	.EQU EECR=0x1C
	.EQU EEDR=0x1D
	.EQU EEARL=0x1E
	.EQU EEARH=0x1F
	.EQU WDTCR=0x21
	.EQU MCUCR=0x35
	.EQU GICR=0x3B
	.EQU SPL=0x3D
	.EQU SPH=0x3E
	.EQU SREG=0x3F

	.DEF R0X0=R0
	.DEF R0X1=R1
	.DEF R0X2=R2
	.DEF R0X3=R3
	.DEF R0X4=R4
	.DEF R0X5=R5
	.DEF R0X6=R6
	.DEF R0X7=R7
	.DEF R0X8=R8
	.DEF R0X9=R9
	.DEF R0XA=R10
	.DEF R0XB=R11
	.DEF R0XC=R12
	.DEF R0XD=R13
	.DEF R0XE=R14
	.DEF R0XF=R15
	.DEF R0X10=R16
	.DEF R0X11=R17
	.DEF R0X12=R18
	.DEF R0X13=R19
	.DEF R0X14=R20
	.DEF R0X15=R21
	.DEF R0X16=R22
	.DEF R0X17=R23
	.DEF R0X18=R24
	.DEF R0X19=R25
	.DEF R0X1A=R26
	.DEF R0X1B=R27
	.DEF R0X1C=R28
	.DEF R0X1D=R29
	.DEF R0X1E=R30
	.DEF R0X1F=R31

	.EQU __SRAM_START=0x0060
	.EQU __SRAM_END=0x045F
	.EQU __DSTACK_SIZE=0x02EE
	.EQU __HEAP_SIZE=0x0000
	.EQU __CLEAR_SRAM_SIZE=__SRAM_END-__SRAM_START+1

	.MACRO __CPD1N
	CPI  R30,LOW(@0)
	LDI  R26,HIGH(@0)
	CPC  R31,R26
	LDI  R26,BYTE3(@0)
	CPC  R22,R26
	LDI  R26,BYTE4(@0)
	CPC  R23,R26
	.ENDM

	.MACRO __CPD2N
	CPI  R26,LOW(@0)
	LDI  R30,HIGH(@0)
	CPC  R27,R30
	LDI  R30,BYTE3(@0)
	CPC  R24,R30
	LDI  R30,BYTE4(@0)
	CPC  R25,R30
	.ENDM

	.MACRO __CPWRR
	CP   R@0,R@2
	CPC  R@1,R@3
	.ENDM

	.MACRO __CPWRN
	CPI  R@0,LOW(@2)
	LDI  R30,HIGH(@2)
	CPC  R@1,R30
	.ENDM

	.MACRO __ADDB1MN
	SUBI R30,LOW(-@0-(@1))
	.ENDM

	.MACRO __ADDB2MN
	SUBI R26,LOW(-@0-(@1))
	.ENDM

	.MACRO __ADDW1MN
	SUBI R30,LOW(-@0-(@1))
	SBCI R31,HIGH(-@0-(@1))
	.ENDM

	.MACRO __ADDW2MN
	SUBI R26,LOW(-@0-(@1))
	SBCI R27,HIGH(-@0-(@1))
	.ENDM

	.MACRO __ADDW1FN
	SUBI R30,LOW(-2*@0-(@1))
	SBCI R31,HIGH(-2*@0-(@1))
	.ENDM

	.MACRO __ADDD1FN
	SUBI R30,LOW(-2*@0-(@1))
	SBCI R31,HIGH(-2*@0-(@1))
	SBCI R22,BYTE3(-2*@0-(@1))
	.ENDM

	.MACRO __ADDD1N
	SUBI R30,LOW(-@0)
	SBCI R31,HIGH(-@0)
	SBCI R22,BYTE3(-@0)
	SBCI R23,BYTE4(-@0)
	.ENDM

	.MACRO __ADDD2N
	SUBI R26,LOW(-@0)
	SBCI R27,HIGH(-@0)
	SBCI R24,BYTE3(-@0)
	SBCI R25,BYTE4(-@0)
	.ENDM

	.MACRO __SUBD1N
	SUBI R30,LOW(@0)
	SBCI R31,HIGH(@0)
	SBCI R22,BYTE3(@0)
	SBCI R23,BYTE4(@0)
	.ENDM

	.MACRO __SUBD2N
	SUBI R26,LOW(@0)
	SBCI R27,HIGH(@0)
	SBCI R24,BYTE3(@0)
	SBCI R25,BYTE4(@0)
	.ENDM

	.MACRO __ANDBMNN
	LDS  R30,@0+(@1)
	ANDI R30,LOW(@2)
	STS  @0+(@1),R30
	.ENDM

	.MACRO __ANDWMNN
	LDS  R30,@0+(@1)
	ANDI R30,LOW(@2)
	STS  @0+(@1),R30
	LDS  R30,@0+(@1)+1
	ANDI R30,HIGH(@2)
	STS  @0+(@1)+1,R30
	.ENDM

	.MACRO __ANDD1N
	ANDI R30,LOW(@0)
	ANDI R31,HIGH(@0)
	ANDI R22,BYTE3(@0)
	ANDI R23,BYTE4(@0)
	.ENDM

	.MACRO __ANDD2N
	ANDI R26,LOW(@0)
	ANDI R27,HIGH(@0)
	ANDI R24,BYTE3(@0)
	ANDI R25,BYTE4(@0)
	.ENDM

	.MACRO __ORBMNN
	LDS  R30,@0+(@1)
	ORI  R30,LOW(@2)
	STS  @0+(@1),R30
	.ENDM

	.MACRO __ORWMNN
	LDS  R30,@0+(@1)
	ORI  R30,LOW(@2)
	STS  @0+(@1),R30
	LDS  R30,@0+(@1)+1
	ORI  R30,HIGH(@2)
	STS  @0+(@1)+1,R30
	.ENDM

	.MACRO __ORD1N
	ORI  R30,LOW(@0)
	ORI  R31,HIGH(@0)
	ORI  R22,BYTE3(@0)
	ORI  R23,BYTE4(@0)
	.ENDM

	.MACRO __ORD2N
	ORI  R26,LOW(@0)
	ORI  R27,HIGH(@0)
	ORI  R24,BYTE3(@0)
	ORI  R25,BYTE4(@0)
	.ENDM

	.MACRO __DELAY_USB
	LDI  R24,LOW(@0)
__DELAY_USB_LOOP:
	DEC  R24
	BRNE __DELAY_USB_LOOP
	.ENDM

	.MACRO __DELAY_USW
	LDI  R24,LOW(@0)
	LDI  R25,HIGH(@0)
__DELAY_USW_LOOP:
	SBIW R24,1
	BRNE __DELAY_USW_LOOP
	.ENDM

	.MACRO __GETD1S
	LDD  R30,Y+@0
	LDD  R31,Y+@0+1
	LDD  R22,Y+@0+2
	LDD  R23,Y+@0+3
	.ENDM

	.MACRO __GETD2S
	LDD  R26,Y+@0
	LDD  R27,Y+@0+1
	LDD  R24,Y+@0+2
	LDD  R25,Y+@0+3
	.ENDM

	.MACRO __PUTD1S
	STD  Y+@0,R30
	STD  Y+@0+1,R31
	STD  Y+@0+2,R22
	STD  Y+@0+3,R23
	.ENDM

	.MACRO __PUTD2S
	STD  Y+@0,R26
	STD  Y+@0+1,R27
	STD  Y+@0+2,R24
	STD  Y+@0+3,R25
	.ENDM

	.MACRO __PUTDZ2
	STD  Z+@0,R26
	STD  Z+@0+1,R27
	STD  Z+@0+2,R24
	STD  Z+@0+3,R25
	.ENDM

	.MACRO __CLRD1S
	STD  Y+@0,R30
	STD  Y+@0+1,R30
	STD  Y+@0+2,R30
	STD  Y+@0+3,R30
	.ENDM

	.MACRO __POINTB1MN
	LDI  R30,LOW(@0+(@1))
	.ENDM

	.MACRO __POINTW1MN
	LDI  R30,LOW(@0+(@1))
	LDI  R31,HIGH(@0+(@1))
	.ENDM

	.MACRO __POINTD1M
	LDI  R30,LOW(@0)
	LDI  R31,HIGH(@0)
	LDI  R22,BYTE3(@0)
	LDI  R23,BYTE4(@0)
	.ENDM

	.MACRO __POINTW1FN
	LDI  R30,LOW(2*@0+(@1))
	LDI  R31,HIGH(2*@0+(@1))
	.ENDM

	.MACRO __POINTD1FN
	LDI  R30,LOW(2*@0+(@1))
	LDI  R31,HIGH(2*@0+(@1))
	LDI  R22,BYTE3(2*@0+(@1))
	LDI  R23,BYTE4(2*@0+(@1))
	.ENDM

	.MACRO __POINTB2MN
	LDI  R26,LOW(@0+(@1))
	.ENDM

	.MACRO __POINTW2MN
	LDI  R26,LOW(@0+(@1))
	LDI  R27,HIGH(@0+(@1))
	.ENDM

	.MACRO __POINTW2FN
	LDI  R26,LOW(2*@0+(@1))
	LDI  R27,HIGH(2*@0+(@1))
	.ENDM

	.MACRO __POINTD2FN
	LDI  R26,LOW(2*@0+(@1))
	LDI  R27,HIGH(2*@0+(@1))
	LDI  R24,BYTE3(2*@0+(@1))
	LDI  R25,BYTE4(2*@0+(@1))
	.ENDM

	.MACRO __POINTBRM
	LDI  R@0,LOW(@1)
	.ENDM

	.MACRO __POINTWRM
	LDI  R@0,LOW(@2)
	LDI  R@1,HIGH(@2)
	.ENDM

	.MACRO __POINTBRMN
	LDI  R@0,LOW(@1+(@2))
	.ENDM

	.MACRO __POINTWRMN
	LDI  R@0,LOW(@2+(@3))
	LDI  R@1,HIGH(@2+(@3))
	.ENDM

	.MACRO __POINTWRFN
	LDI  R@0,LOW(@2*2+(@3))
	LDI  R@1,HIGH(@2*2+(@3))
	.ENDM

	.MACRO __GETD1N
	LDI  R30,LOW(@0)
	LDI  R31,HIGH(@0)
	LDI  R22,BYTE3(@0)
	LDI  R23,BYTE4(@0)
	.ENDM

	.MACRO __GETD2N
	LDI  R26,LOW(@0)
	LDI  R27,HIGH(@0)
	LDI  R24,BYTE3(@0)
	LDI  R25,BYTE4(@0)
	.ENDM

	.MACRO __GETB1MN
	LDS  R30,@0+(@1)
	.ENDM

	.MACRO __GETB1HMN
	LDS  R31,@0+(@1)
	.ENDM

	.MACRO __GETW1MN
	LDS  R30,@0+(@1)
	LDS  R31,@0+(@1)+1
	.ENDM

	.MACRO __GETD1MN
	LDS  R30,@0+(@1)
	LDS  R31,@0+(@1)+1
	LDS  R22,@0+(@1)+2
	LDS  R23,@0+(@1)+3
	.ENDM

	.MACRO __GETBRMN
	LDS  R@0,@1+(@2)
	.ENDM

	.MACRO __GETWRMN
	LDS  R@0,@2+(@3)
	LDS  R@1,@2+(@3)+1
	.ENDM

	.MACRO __GETWRZ
	LDD  R@0,Z+@2
	LDD  R@1,Z+@2+1
	.ENDM

	.MACRO __GETD2Z
	LDD  R26,Z+@0
	LDD  R27,Z+@0+1
	LDD  R24,Z+@0+2
	LDD  R25,Z+@0+3
	.ENDM

	.MACRO __GETB2MN
	LDS  R26,@0+(@1)
	.ENDM

	.MACRO __GETW2MN
	LDS  R26,@0+(@1)
	LDS  R27,@0+(@1)+1
	.ENDM

	.MACRO __GETD2MN
	LDS  R26,@0+(@1)
	LDS  R27,@0+(@1)+1
	LDS  R24,@0+(@1)+2
	LDS  R25,@0+(@1)+3
	.ENDM

	.MACRO __PUTB1MN
	STS  @0+(@1),R30
	.ENDM

	.MACRO __PUTW1MN
	STS  @0+(@1),R30
	STS  @0+(@1)+1,R31
	.ENDM

	.MACRO __PUTD1MN
	STS  @0+(@1),R30
	STS  @0+(@1)+1,R31
	STS  @0+(@1)+2,R22
	STS  @0+(@1)+3,R23
	.ENDM

	.MACRO __PUTB1EN
	LDI  R26,LOW(@0+(@1))
	LDI  R27,HIGH(@0+(@1))
	RCALL __EEPROMWRB
	.ENDM

	.MACRO __PUTW1EN
	LDI  R26,LOW(@0+(@1))
	LDI  R27,HIGH(@0+(@1))
	RCALL __EEPROMWRW
	.ENDM

	.MACRO __PUTD1EN
	LDI  R26,LOW(@0+(@1))
	LDI  R27,HIGH(@0+(@1))
	RCALL __EEPROMWRD
	.ENDM

	.MACRO __PUTBR0MN
	STS  @0+(@1),R0
	.ENDM

	.MACRO __PUTBMRN
	STS  @0+(@1),R@2
	.ENDM

	.MACRO __PUTWMRN
	STS  @0+(@1),R@2
	STS  @0+(@1)+1,R@3
	.ENDM

	.MACRO __PUTBZR
	STD  Z+@1,R@0
	.ENDM

	.MACRO __PUTWZR
	STD  Z+@2,R@0
	STD  Z+@2+1,R@1
	.ENDM

	.MACRO __GETW1R
	MOV  R30,R@0
	MOV  R31,R@1
	.ENDM

	.MACRO __GETW2R
	MOV  R26,R@0
	MOV  R27,R@1
	.ENDM

	.MACRO __GETWRN
	LDI  R@0,LOW(@2)
	LDI  R@1,HIGH(@2)
	.ENDM

	.MACRO __PUTW1R
	MOV  R@0,R30
	MOV  R@1,R31
	.ENDM

	.MACRO __PUTW2R
	MOV  R@0,R26
	MOV  R@1,R27
	.ENDM

	.MACRO __ADDWRN
	SUBI R@0,LOW(-@2)
	SBCI R@1,HIGH(-@2)
	.ENDM

	.MACRO __ADDWRR
	ADD  R@0,R@2
	ADC  R@1,R@3
	.ENDM

	.MACRO __SUBWRN
	SUBI R@0,LOW(@2)
	SBCI R@1,HIGH(@2)
	.ENDM

	.MACRO __SUBWRR
	SUB  R@0,R@2
	SBC  R@1,R@3
	.ENDM

	.MACRO __ANDWRN
	ANDI R@0,LOW(@2)
	ANDI R@1,HIGH(@2)
	.ENDM

	.MACRO __ANDWRR
	AND  R@0,R@2
	AND  R@1,R@3
	.ENDM

	.MACRO __ORWRN
	ORI  R@0,LOW(@2)
	ORI  R@1,HIGH(@2)
	.ENDM

	.MACRO __ORWRR
	OR   R@0,R@2
	OR   R@1,R@3
	.ENDM

	.MACRO __EORWRR
	EOR  R@0,R@2
	EOR  R@1,R@3
	.ENDM

	.MACRO __GETWRS
	LDD  R@0,Y+@2
	LDD  R@1,Y+@2+1
	.ENDM

	.MACRO __PUTBSR
	STD  Y+@1,R@0
	.ENDM

	.MACRO __PUTWSR
	STD  Y+@2,R@0
	STD  Y+@2+1,R@1
	.ENDM

	.MACRO __MOVEWRR
	MOV  R@0,R@2
	MOV  R@1,R@3
	.ENDM

	.MACRO __INWR
	IN   R@0,@2
	IN   R@1,@2+1
	.ENDM

	.MACRO __OUTWR
	OUT  @2+1,R@1
	OUT  @2,R@0
	.ENDM

	.MACRO __CALL1MN
	LDS  R30,@0+(@1)
	LDS  R31,@0+(@1)+1
	ICALL
	.ENDM

	.MACRO __CALL1FN
	LDI  R30,LOW(2*@0+(@1))
	LDI  R31,HIGH(2*@0+(@1))
	RCALL __GETW1PF
	ICALL
	.ENDM

	.MACRO __CALL2EN
	LDI  R26,LOW(@0+(@1))
	LDI  R27,HIGH(@0+(@1))
	RCALL __EEPROMRDW
	ICALL
	.ENDM

	.MACRO __GETW1STACK
	IN   R26,SPL
	IN   R27,SPH
	ADIW R26,@0+1
	LD   R30,X+
	LD   R31,X
	.ENDM

	.MACRO __GETD1STACK
	IN   R26,SPL
	IN   R27,SPH
	ADIW R26,@0+1
	LD   R30,X+
	LD   R31,X+
	LD   R22,X
	.ENDM

	.MACRO __NBST
	BST  R@0,@1
	IN   R30,SREG
	LDI  R31,0x40
	EOR  R30,R31
	OUT  SREG,R30
	.ENDM


	.MACRO __PUTB1SN
	LDD  R26,Y+@0
	LDD  R27,Y+@0+1
	SUBI R26,LOW(-@1)
	SBCI R27,HIGH(-@1)
	ST   X,R30
	.ENDM

	.MACRO __PUTW1SN
	LDD  R26,Y+@0
	LDD  R27,Y+@0+1
	SUBI R26,LOW(-@1)
	SBCI R27,HIGH(-@1)
	ST   X+,R30
	ST   X,R31
	.ENDM

	.MACRO __PUTD1SN
	LDD  R26,Y+@0
	LDD  R27,Y+@0+1
	SUBI R26,LOW(-@1)
	SBCI R27,HIGH(-@1)
	RCALL __PUTDP1
	.ENDM

	.MACRO __PUTB1SNS
	LDD  R26,Y+@0
	LDD  R27,Y+@0+1
	ADIW R26,@1
	ST   X,R30
	.ENDM

	.MACRO __PUTW1SNS
	LDD  R26,Y+@0
	LDD  R27,Y+@0+1
	ADIW R26,@1
	ST   X+,R30
	ST   X,R31
	.ENDM

	.MACRO __PUTD1SNS
	LDD  R26,Y+@0
	LDD  R27,Y+@0+1
	ADIW R26,@1
	RCALL __PUTDP1
	.ENDM

	.MACRO __PUTB1PMN
	LDS  R26,@0
	LDS  R27,@0+1
	SUBI R26,LOW(-@1)
	SBCI R27,HIGH(-@1)
	ST   X,R30
	.ENDM

	.MACRO __PUTW1PMN
	LDS  R26,@0
	LDS  R27,@0+1
	SUBI R26,LOW(-@1)
	SBCI R27,HIGH(-@1)
	ST   X+,R30
	ST   X,R31
	.ENDM

	.MACRO __PUTD1PMN
	LDS  R26,@0
	LDS  R27,@0+1
	SUBI R26,LOW(-@1)
	SBCI R27,HIGH(-@1)
	RCALL __PUTDP1
	.ENDM

	.MACRO __PUTB1PMNS
	LDS  R26,@0
	LDS  R27,@0+1
	ADIW R26,@1
	ST   X,R30
	.ENDM

	.MACRO __PUTW1PMNS
	LDS  R26,@0
	LDS  R27,@0+1
	ADIW R26,@1
	ST   X+,R30
	ST   X,R31
	.ENDM

	.MACRO __PUTD1PMNS
	LDS  R26,@0
	LDS  R27,@0+1
	ADIW R26,@1
	RCALL __PUTDP1
	.ENDM

	.MACRO __PUTB1RN
	MOVW R26,R@0
	SUBI R26,LOW(-@1)
	SBCI R27,HIGH(-@1)
	ST   X,R30
	.ENDM

	.MACRO __PUTW1RN
	MOVW R26,R@0
	SUBI R26,LOW(-@1)
	SBCI R27,HIGH(-@1)
	ST   X+,R30
	ST   X,R31
	.ENDM

	.MACRO __PUTD1RN
	MOVW R26,R@0
	SUBI R26,LOW(-@1)
	SBCI R27,HIGH(-@1)
	RCALL __PUTDP1
	.ENDM

	.MACRO __PUTB1RNS
	MOVW R26,R@0
	ADIW R26,@1
	ST   X,R30
	.ENDM

	.MACRO __PUTW1RNS
	MOVW R26,R@0
	ADIW R26,@1
	ST   X+,R30
	ST   X,R31
	.ENDM

	.MACRO __PUTD1RNS
	MOVW R26,R@0
	ADIW R26,@1
	RCALL __PUTDP1
	.ENDM

	.MACRO __PUTB1RON
	MOV  R26,R@0
	MOV  R27,R@1
	SUBI R26,LOW(-@2)
	SBCI R27,HIGH(-@2)
	ST   X,R30
	.ENDM

	.MACRO __PUTW1RON
	MOV  R26,R@0
	MOV  R27,R@1
	SUBI R26,LOW(-@2)
	SBCI R27,HIGH(-@2)
	ST   X+,R30
	ST   X,R31
	.ENDM

	.MACRO __PUTD1RON
	MOV  R26,R@0
	MOV  R27,R@1
	SUBI R26,LOW(-@2)
	SBCI R27,HIGH(-@2)
	RCALL __PUTDP1
	.ENDM

	.MACRO __PUTB1RONS
	MOV  R26,R@0
	MOV  R27,R@1
	ADIW R26,@2
	ST   X,R30
	.ENDM

	.MACRO __PUTW1RONS
	MOV  R26,R@0
	MOV  R27,R@1
	ADIW R26,@2
	ST   X+,R30
	ST   X,R31
	.ENDM

	.MACRO __PUTD1RONS
	MOV  R26,R@0
	MOV  R27,R@1
	ADIW R26,@2
	RCALL __PUTDP1
	.ENDM


	.MACRO __GETB1SX
	MOVW R30,R28
	SUBI R30,LOW(-@0)
	SBCI R31,HIGH(-@0)
	LD   R30,Z
	.ENDM

	.MACRO __GETB1HSX
	MOVW R30,R28
	SUBI R30,LOW(-@0)
	SBCI R31,HIGH(-@0)
	LD   R31,Z
	.ENDM

	.MACRO __GETW1SX
	MOVW R30,R28
	SUBI R30,LOW(-@0)
	SBCI R31,HIGH(-@0)
	LD   R0,Z+
	LD   R31,Z
	MOV  R30,R0
	.ENDM

	.MACRO __GETD1SX
	MOVW R30,R28
	SUBI R30,LOW(-@0)
	SBCI R31,HIGH(-@0)
	LD   R0,Z+
	LD   R1,Z+
	LD   R22,Z+
	LD   R23,Z
	MOVW R30,R0
	.ENDM

	.MACRO __GETB2SX
	MOVW R26,R28
	SUBI R26,LOW(-@0)
	SBCI R27,HIGH(-@0)
	LD   R26,X
	.ENDM

	.MACRO __GETW2SX
	MOVW R26,R28
	SUBI R26,LOW(-@0)
	SBCI R27,HIGH(-@0)
	LD   R0,X+
	LD   R27,X
	MOV  R26,R0
	.ENDM

	.MACRO __GETD2SX
	MOVW R26,R28
	SUBI R26,LOW(-@0)
	SBCI R27,HIGH(-@0)
	LD   R0,X+
	LD   R1,X+
	LD   R24,X+
	LD   R25,X
	MOVW R26,R0
	.ENDM

	.MACRO __GETBRSX
	MOVW R30,R28
	SUBI R30,LOW(-@1)
	SBCI R31,HIGH(-@1)
	LD   R@0,Z
	.ENDM

	.MACRO __GETWRSX
	MOVW R30,R28
	SUBI R30,LOW(-@2)
	SBCI R31,HIGH(-@2)
	LD   R@0,Z+
	LD   R@1,Z
	.ENDM

	.MACRO __GETBRSX2
	MOVW R26,R28
	SUBI R26,LOW(-@1)
	SBCI R27,HIGH(-@1)
	LD   R@0,X
	.ENDM

	.MACRO __GETWRSX2
	MOVW R26,R28
	SUBI R26,LOW(-@2)
	SBCI R27,HIGH(-@2)
	LD   R@0,X+
	LD   R@1,X
	.ENDM

	.MACRO __LSLW8SX
	MOVW R30,R28
	SUBI R30,LOW(-@0)
	SBCI R31,HIGH(-@0)
	LD   R31,Z
	CLR  R30
	.ENDM

	.MACRO __PUTB1SX
	MOVW R26,R28
	SUBI R26,LOW(-@0)
	SBCI R27,HIGH(-@0)
	ST   X,R30
	.ENDM

	.MACRO __PUTW1SX
	MOVW R26,R28
	SUBI R26,LOW(-@0)
	SBCI R27,HIGH(-@0)
	ST   X+,R30
	ST   X,R31
	.ENDM

	.MACRO __PUTD1SX
	MOVW R26,R28
	SUBI R26,LOW(-@0)
	SBCI R27,HIGH(-@0)
	ST   X+,R30
	ST   X+,R31
	ST   X+,R22
	ST   X,R23
	.ENDM

	.MACRO __CLRW1SX
	MOVW R26,R28
	SUBI R26,LOW(-@0)
	SBCI R27,HIGH(-@0)
	ST   X+,R30
	ST   X,R30
	.ENDM

	.MACRO __CLRD1SX
	MOVW R26,R28
	SUBI R26,LOW(-@0)
	SBCI R27,HIGH(-@0)
	ST   X+,R30
	ST   X+,R30
	ST   X+,R30
	ST   X,R30
	.ENDM

	.MACRO __PUTB2SX
	MOVW R30,R28
	SUBI R30,LOW(-@0)
	SBCI R31,HIGH(-@0)
	ST   Z,R26
	.ENDM

	.MACRO __PUTW2SX
	MOVW R30,R28
	SUBI R30,LOW(-@0)
	SBCI R31,HIGH(-@0)
	ST   Z+,R26
	ST   Z,R27
	.ENDM

	.MACRO __PUTD2SX
	MOVW R30,R28
	SUBI R30,LOW(-@0)
	SBCI R31,HIGH(-@0)
	ST   Z+,R26
	ST   Z+,R27
	ST   Z+,R24
	ST   Z,R25
	.ENDM

	.MACRO __PUTBSRX
	MOVW R30,R28
	SUBI R30,LOW(-@1)
	SBCI R31,HIGH(-@1)
	ST   Z,R@0
	.ENDM

	.MACRO __PUTWSRX
	MOVW R30,R28
	SUBI R30,LOW(-@2)
	SBCI R31,HIGH(-@2)
	ST   Z+,R@0
	ST   Z,R@1
	.ENDM

	.MACRO __PUTB1SNX
	MOVW R26,R28
	SUBI R26,LOW(-@0)
	SBCI R27,HIGH(-@0)
	LD   R0,X+
	LD   R27,X
	MOV  R26,R0
	SUBI R26,LOW(-@1)
	SBCI R27,HIGH(-@1)
	ST   X,R30
	.ENDM

	.MACRO __PUTW1SNX
	MOVW R26,R28
	SUBI R26,LOW(-@0)
	SBCI R27,HIGH(-@0)
	LD   R0,X+
	LD   R27,X
	MOV  R26,R0
	SUBI R26,LOW(-@1)
	SBCI R27,HIGH(-@1)
	ST   X+,R30
	ST   X,R31
	.ENDM

	.MACRO __PUTD1SNX
	MOVW R26,R28
	SUBI R26,LOW(-@0)
	SBCI R27,HIGH(-@0)
	LD   R0,X+
	LD   R27,X
	MOV  R26,R0
	SUBI R26,LOW(-@1)
	SBCI R27,HIGH(-@1)
	ST   X+,R30
	ST   X+,R31
	ST   X+,R22
	ST   X,R23
	.ENDM

	.MACRO __MULBRR
	MULS R@0,R@1
	MOVW R30,R0
	.ENDM

	.MACRO __MULBRRU
	MUL  R@0,R@1
	MOVW R30,R0
	.ENDM

	.MACRO __MULBRR0
	MULS R@0,R@1
	.ENDM

	.MACRO __MULBRRU0
	MUL  R@0,R@1
	.ENDM

	.MACRO __MULBNWRU
	LDI  R26,@2
	MUL  R26,R@0
	MOVW R30,R0
	MUL  R26,R@1
	ADD  R31,R0
	.ENDM

	.CSEG
	.ORG 0x00

;START OF CODE MARKER
__START_OF_CODE:

;INTERRUPT VECTORS
	RJMP __RESET
	RJMP 0x00
	RJMP 0x00
	RJMP _timer2_comp_isr
	RJMP 0x00
	RJMP 0x00
	RJMP 0x00
	RJMP 0x00
	RJMP 0x00
	RJMP 0x00
	RJMP 0x00
	RJMP 0x00
	RJMP 0x00
	RJMP 0x00
	RJMP 0x00
	RJMP 0x00
	RJMP 0x00
	RJMP 0x00
	RJMP 0x00

_k1:
	.DB  0x20,0x22,0x2A,0x2B,0x2C,0x5B,0x3D,0x5D
	.DB  0x7C,0x7F,0x0

_0x0:
	.DB  0x30,0x3A,0x2F,0x31,0x2E,0x74,0x78,0x74
	.DB  0x0
_0x2000003:
	.DB  0x1

__GLOBAL_INI_TBL:
	.DW  0x09
	.DW  _0x3
	.DW  _0x0*2

	.DW  0x01
	.DW  _status_G100
	.DW  _0x2000003*2

_0xFFFFFFFF:
	.DW  0

__RESET:
	CLI
	CLR  R30
	OUT  EECR,R30

;INTERRUPT VECTORS ARE PLACED
;AT THE START OF FLASH
	LDI  R31,1
	OUT  GICR,R31
	OUT  GICR,R30
	OUT  MCUCR,R30

;DISABLE WATCHDOG
	LDI  R31,0x18
	OUT  WDTCR,R31
	OUT  WDTCR,R30

;CLEAR R2-R14
	LDI  R24,(14-2)+1
	LDI  R26,2
	CLR  R27
__CLEAR_REG:
	ST   X+,R30
	DEC  R24
	BRNE __CLEAR_REG

;CLEAR SRAM
	LDI  R24,LOW(__CLEAR_SRAM_SIZE)
	LDI  R25,HIGH(__CLEAR_SRAM_SIZE)
	LDI  R26,__SRAM_START
__CLEAR_SRAM:
	ST   X+,R30
	SBIW R24,1
	BRNE __CLEAR_SRAM

;GLOBAL VARIABLES INITIALIZATION
	LDI  R30,LOW(__GLOBAL_INI_TBL*2)
	LDI  R31,HIGH(__GLOBAL_INI_TBL*2)
__GLOBAL_INI_NEXT:
	LPM  R24,Z+
	LPM  R25,Z+
	SBIW R24,0
	BREQ __GLOBAL_INI_END
	LPM  R26,Z+
	LPM  R27,Z+
	LPM  R0,Z+
	LPM  R1,Z+
	MOVW R22,R30
	MOVW R30,R0
__GLOBAL_INI_LOOP:
	LPM  R0,Z+
	ST   X+,R0
	SBIW R24,1
	BRNE __GLOBAL_INI_LOOP
	MOVW R30,R22
	RJMP __GLOBAL_INI_NEXT
__GLOBAL_INI_END:

;HARDWARE STACK POINTER INITIALIZATION
	LDI  R30,LOW(__SRAM_END-__HEAP_SIZE)
	OUT  SPL,R30
	LDI  R30,HIGH(__SRAM_END-__HEAP_SIZE)
	OUT  SPH,R30

;DATA STACK POINTER INITIALIZATION
	LDI  R28,LOW(__SRAM_START+__DSTACK_SIZE)
	LDI  R29,HIGH(__SRAM_START+__DSTACK_SIZE)

	RJMP _main

	.ESEG
	.ORG 0

	.DSEG
	.ORG 0x34E

	.CSEG
;#include <mega8.h>
	#ifndef __SLEEP_DEFINED__
	#define __SLEEP_DEFINED__
	.EQU __se_bit=0x80
	.EQU __sm_mask=0x70
	.EQU __sm_powerdown=0x20
	.EQU __sm_powersave=0x30
	.EQU __sm_standby=0x60
	.EQU __sm_ext_standby=0x70
	.EQU __sm_adc_noise_red=0x10
	.SET power_ctrl_reg=mcucr
	#endif
;#include <ff.h>
;#include <delay.h>
;
;// Timer2 output compare interrupt service routine
;interrupt [TIM2_COMP] void timer2_comp_isr(void)
; 0000 0007 {

	.CSEG
_timer2_comp_isr:
	ST   -Y,R0
	ST   -Y,R1
	ST   -Y,R15
	ST   -Y,R22
	ST   -Y,R23
	ST   -Y,R24
	ST   -Y,R25
	ST   -Y,R26
	ST   -Y,R27
	ST   -Y,R30
	ST   -Y,R31
	IN   R30,SREG
	ST   -Y,R30
; 0000 0008 disk_timerproc();
	RCALL _disk_timerproc
; 0000 0009 }
	LD   R30,Y+
	OUT  SREG,R30
	LD   R31,Y+
	LD   R30,Y+
	LD   R27,Y+
	LD   R26,Y+
	LD   R25,Y+
	LD   R24,Y+
	LD   R23,Y+
	LD   R22,Y+
	LD   R15,Y+
	LD   R1,Y+
	LD   R0,Y+
	RETI
;
;void main(void)
; 0000 000C {
_main:
; 0000 000D     FATFS fs;         /* Рабочая область (file system object) для логических дисков */
; 0000 000E     FIL fp;      /* файловые объекты */
; 0000 000F     unsigned char buffer[20];   /* буфер для копирования данных фала */
; 0000 0010     unsigned int br;         /* счетчик чтения/записи файла */
; 0000 0011 
; 0000 0012 PORTD=0x00;
	SBIW R28,63
	SBIW R28,17
	SUBI R29,2
;	fs -> Y+46
;	fp -> Y+20
;	buffer -> Y+0
;	br -> R16,R17
	LDI  R30,LOW(0)
	OUT  0x12,R30
; 0000 0013 DDRD=0x01;
	LDI  R30,LOW(1)
	OUT  0x11,R30
; 0000 0014 
; 0000 0015 // Timer/Counter 2 initialization
; 0000 0016 // Clock source: System Clock
; 0000 0017 // Clock value: 7,813 kHz
; 0000 0018 // Mode: CTC top=OCR2
; 0000 0019 // OC2 output: Disconnected
; 0000 001A ASSR=0x00;
	LDI  R30,LOW(0)
	OUT  0x22,R30
; 0000 001B TCCR2=0x0F;
	LDI  R30,LOW(15)
	OUT  0x25,R30
; 0000 001C TCNT2=0x00;
	LDI  R30,LOW(0)
	OUT  0x24,R30
; 0000 001D OCR2=0x64;
	LDI  R30,LOW(100)
	OUT  0x23,R30
; 0000 001E 
; 0000 001F // Timer(s)/Counter(s) Interrupt(s) initialization
; 0000 0020 TIMSK=0x80;
	LDI  R30,LOW(128)
	OUT  0x39,R30
; 0000 0021 
; 0000 0022 #asm("sei")
	sei
; 0000 0023 delay_ms(1000);
	LDI  R26,LOW(1000)
	LDI  R27,HIGH(1000)
	RCALL _delay_ms
; 0000 0024 
; 0000 0025 disk_initialize(0);
	LDI  R26,LOW(0)
	RCALL _disk_initialize
; 0000 0026 f_mount(0, &fs);
	LDI  R30,LOW(0)
	ST   -Y,R30
	MOVW R26,R28
	ADIW R26,47
	RCALL _f_mount
; 0000 0027 f_open(&fp, "0:/1.txt", FA_OPEN_EXISTING | FA_READ);
	RCALL SUBOPT_0x0
	__POINTW1MN _0x3,0
	RCALL SUBOPT_0x1
	LDI  R26,LOW(1)
	RCALL _f_open
; 0000 0028 f_read(&fp, buffer, 2, &br);
	RCALL SUBOPT_0x0
	MOVW R30,R28
	ADIW R30,2
	RCALL SUBOPT_0x1
	LDI  R30,LOW(2)
	LDI  R31,HIGH(2)
	RCALL SUBOPT_0x1
	IN   R26,SPL
	IN   R27,SPH
	SBIW R26,1
	PUSH R17
	PUSH R16
	RCALL _f_read
	POP  R16
	POP  R17
; 0000 0029 f_close(&fp);
	MOVW R26,R28
	ADIW R26,20
	RCALL _f_close
; 0000 002A 
; 0000 002B if(buffer[0]=='1') //если в файле первый символ 1 то включить светодиод
	LD   R26,Y
	CPI  R26,LOW(0x31)
	BRNE _0x4
; 0000 002C {
; 0000 002D PORTD.0=1;
	SBI  0x12,0
; 0000 002E }
; 0000 002F else
	RJMP _0x7
_0x4:
; 0000 0030 {
; 0000 0031 while(1)
_0x8:
; 0000 0032    {
; 0000 0033 
; 0000 0034 
; 0000 0035   PORTD.0=1;
	SBI  0x12,0
; 0000 0036   delay_ms(200);
	LDI  R26,LOW(200)
	LDI  R27,0
	RCALL _delay_ms
; 0000 0037   PORTD.0=0;
	CBI  0x12,0
; 0000 0038   delay_ms(200);
	LDI  R26,LOW(200)
	LDI  R27,0
	RCALL _delay_ms
; 0000 0039   }
	RJMP _0x8
; 0000 003A }
_0x7:
; 0000 003B    while(1);
_0xF:
	RJMP _0xF
; 0000 003C 
; 0000 003D }
_0x12:
	RJMP _0x12

	.DSEG
_0x3:
	.BYTE 0x9
	#ifndef __SLEEP_DEFINED__
	#define __SLEEP_DEFINED__
	.EQU __se_bit=0x80
	.EQU __sm_mask=0x70
	.EQU __sm_powerdown=0x20
	.EQU __sm_powersave=0x30
	.EQU __sm_standby=0x60
	.EQU __sm_ext_standby=0x70
	.EQU __sm_adc_noise_red=0x10
	.SET power_ctrl_reg=mcucr
	#endif

	.DSEG

	.CSEG
_wait_ready_G100:
	ST   -Y,R17
	LDI  R30,LOW(50)
	STS  _timer2_G100,R30
	LDI  R30,LOW(255)
	OUT  0xF,R30
_0x2000004:
	SBIS 0xE,7
	RJMP _0x2000004
_0x2000008:
	LDI  R30,LOW(255)
	OUT  0xF,R30
_0x200000A:
	SBIS 0xE,7
	RJMP _0x200000A
	IN   R17,15
	CPI  R17,255
	BREQ _0x200000D
	LDS  R30,_timer2_G100
	CPI  R30,0
	BRNE _0x200000E
_0x200000D:
	RJMP _0x2000009
_0x200000E:
	RJMP _0x2000008
_0x2000009:
	MOV  R30,R17
	LD   R17,Y+
	RET
_release_spi_G100:
	SBI  0x18,2
	LDI  R30,LOW(255)
	OUT  0xF,R30
_0x200000F:
	SBIS 0xE,7
	RJMP _0x200000F
	RET
_rx_datablock_G100:
	ST   -Y,R27
	ST   -Y,R26
	RCALL __SAVELOCR4
	LDI  R30,LOW(10)
	STS  _timer1_G100,R30
_0x2000013:
	LDI  R30,LOW(255)
	OUT  0xF,R30
_0x2000015:
	SBIS 0xE,7
	RJMP _0x2000015
	IN   R17,15
	CPI  R17,255
	BRNE _0x2000018
	LDS  R30,_timer1_G100
	CPI  R30,0
	BRNE _0x2000019
_0x2000018:
	RJMP _0x2000014
_0x2000019:
	RJMP _0x2000013
_0x2000014:
	CPI  R17,254
	BREQ _0x200001A
	LDI  R30,LOW(0)
	RJMP _0x206000A
_0x200001A:
	__GETWRS 18,19,6
_0x200001C:
	LDI  R30,LOW(255)
	OUT  0xF,R30
_0x200001E:
	SBIS 0xE,7
	RJMP _0x200001E
	PUSH R19
	PUSH R18
	__ADDWRN 18,19,1
	IN   R30,0xF
	POP  R26
	POP  R27
	ST   X,R30
	LDI  R30,LOW(255)
	OUT  0xF,R30
_0x2000021:
	SBIS 0xE,7
	RJMP _0x2000021
	PUSH R19
	PUSH R18
	__ADDWRN 18,19,1
	IN   R30,0xF
	POP  R26
	POP  R27
	ST   X,R30
	LDI  R30,LOW(255)
	OUT  0xF,R30
_0x2000024:
	SBIS 0xE,7
	RJMP _0x2000024
	PUSH R19
	PUSH R18
	__ADDWRN 18,19,1
	IN   R30,0xF
	POP  R26
	POP  R27
	ST   X,R30
	LDI  R30,LOW(255)
	OUT  0xF,R30
_0x2000027:
	SBIS 0xE,7
	RJMP _0x2000027
	PUSH R19
	PUSH R18
	__ADDWRN 18,19,1
	IN   R30,0xF
	POP  R26
	POP  R27
	ST   X,R30
	LDD  R30,Y+4
	LDD  R31,Y+4+1
	SBIW R30,4
	STD  Y+4,R30
	STD  Y+4+1,R31
	BRNE _0x200001C
	LDI  R30,LOW(255)
	OUT  0xF,R30
_0x200002A:
	SBIS 0xE,7
	RJMP _0x200002A
	LDI  R30,LOW(255)
	OUT  0xF,R30
_0x200002D:
	SBIS 0xE,7
	RJMP _0x200002D
	LDI  R30,LOW(1)
	RJMP _0x206000A
_send_cmd_G100:
	RCALL __PUTPARD2
	RCALL __SAVELOCR2
	LDD  R30,Y+6
	ANDI R30,LOW(0x80)
	BREQ _0x2000048
	LDD  R30,Y+6
	ANDI R30,0x7F
	STD  Y+6,R30
	LDI  R30,LOW(119)
	ST   -Y,R30
	__GETD2N 0x0
	RCALL _send_cmd_G100
	MOV  R16,R30
	CPI  R16,2
	BRSH _0x2060014
_0x2000048:
	SBI  0x18,2
	CBI  0x18,2
	RCALL _wait_ready_G100
	CPI  R30,LOW(0xFF)
	BREQ _0x200004A
	LDI  R30,LOW(255)
	RJMP _0x2060013
_0x200004A:
	LDD  R30,Y+6
	OUT  0xF,R30
_0x200004B:
	SBIS 0xE,7
	RJMP _0x200004B
	LDD  R30,Y+5
	OUT  0xF,R30
_0x200004E:
	SBIS 0xE,7
	RJMP _0x200004E
	LDD  R30,Y+4
	OUT  0xF,R30
_0x2000051:
	SBIS 0xE,7
	RJMP _0x2000051
	LDD  R30,Y+3
	OUT  0xF,R30
_0x2000054:
	SBIS 0xE,7
	RJMP _0x2000054
	LDD  R30,Y+2
	OUT  0xF,R30
_0x2000057:
	SBIS 0xE,7
	RJMP _0x2000057
	LDI  R17,LOW(1)
	LDD  R26,Y+6
	CPI  R26,LOW(0x40)
	BRNE _0x200005A
	LDI  R17,LOW(149)
	RJMP _0x200005B
_0x200005A:
	LDD  R26,Y+6
	CPI  R26,LOW(0x48)
	BRNE _0x200005C
	LDI  R17,LOW(135)
_0x200005C:
_0x200005B:
	OUT  0xF,R17
_0x200005D:
	SBIS 0xE,7
	RJMP _0x200005D
	LDD  R26,Y+6
	CPI  R26,LOW(0x4C)
	BRNE _0x2000060
	LDI  R30,LOW(255)
	OUT  0xF,R30
_0x2000061:
	SBIS 0xE,7
	RJMP _0x2000061
_0x2000060:
	LDI  R17,LOW(255)
_0x2000065:
	LDI  R30,LOW(255)
	OUT  0xF,R30
_0x2000067:
	SBIS 0xE,7
	RJMP _0x2000067
	IN   R16,15
	SBRS R16,7
	RJMP _0x200006A
	SUBI R17,LOW(1)
	BRNE _0x200006B
_0x200006A:
	RJMP _0x2000066
_0x200006B:
	RJMP _0x2000065
_0x2000066:
_0x2060014:
	MOV  R30,R16
_0x2060013:
	RCALL __LOADLOCR2
	ADIW R28,7
	RET
_rx_spi4_G100:
	ST   -Y,R27
	ST   -Y,R26
	ST   -Y,R17
	LDI  R17,4
_0x200006D:
	LDI  R30,LOW(255)
	OUT  0xF,R30
_0x200006F:
	SBIS 0xE,7
	RJMP _0x200006F
	LDD  R26,Y+1
	LDD  R27,Y+1+1
	ADIW R26,1
	STD  Y+1,R26
	STD  Y+1+1,R27
	SBIW R26,1
	IN   R30,0xF
	ST   X,R30
	SUBI R17,LOW(1)
	BRNE _0x200006D
	RJMP _0x2060001
_disk_initialize:
	ST   -Y,R26
	SBIW R28,4
	RCALL __SAVELOCR4
	LDD  R30,Y+8
	CPI  R30,0
	BREQ _0x2000072
	LDI  R30,LOW(1)
	RCALL __LOADLOCR4
	RJMP _0x206000D
_0x2000072:
	CBI  0x14,1
	CBI  0x14,0
	LDI  R30,LOW(10)
	STS  _timer1_G100,R30
_0x2000073:
	LDS  R30,_timer1_G100
	CPI  R30,0
	BRNE _0x2000073
	LDS  R30,_status_G100
	ANDI R30,LOW(0x2)
	BREQ _0x2000076
	LDS  R30,_status_G100
	RCALL __LOADLOCR4
	RJMP _0x206000D
_0x2000076:
	SBI  0x17,2
	SBI  0x18,2
	IN   R30,0x18
	ANDI R30,LOW(0xD7)
	OUT  0x18,R30
	SBI  0x18,4
	CBI  0x17,4
	IN   R30,0x17
	ORI  R30,LOW(0x2C)
	OUT  0x17,R30
	LDI  R30,LOW(82)
	OUT  0xD,R30
	LDI  R30,LOW(0)
	OUT  0xE,R30
	LDI  R19,LOW(255)
_0x2000078:
	LDI  R17,LOW(10)
_0x200007B:
	LDI  R30,LOW(255)
	OUT  0xF,R30
_0x200007D:
	SBIS 0xE,7
	RJMP _0x200007D
	SUBI R17,LOW(1)
	BRNE _0x200007B
	LDI  R30,LOW(64)
	ST   -Y,R30
	__GETD2N 0x0
	RCALL _send_cmd_G100
	MOV  R16,R30
	SUBI R19,LOW(1)
	CPI  R16,1
	BREQ _0x2000080
	CPI  R19,0
	BRNE _0x2000081
_0x2000080:
	RJMP _0x2000079
_0x2000081:
	RJMP _0x2000078
_0x2000079:
	LDI  R19,LOW(0)
	CPI  R16,1
	BREQ PC+2
	RJMP _0x2000082
	LDI  R30,LOW(100)
	STS  _timer1_G100,R30
	LDI  R30,LOW(72)
	ST   -Y,R30
	__GETD2N 0x1AA
	RCALL _send_cmd_G100
	CPI  R30,LOW(0x1)
	BRNE _0x2000083
	MOVW R26,R28
	ADIW R26,4
	RCALL _rx_spi4_G100
	LDD  R26,Y+6
	CPI  R26,LOW(0x1)
	BRNE _0x2000085
	LDD  R26,Y+7
	CPI  R26,LOW(0xAA)
	BREQ _0x2000086
_0x2000085:
	RJMP _0x2000084
_0x2000086:
_0x2000087:
	LDS  R30,_timer1_G100
	CPI  R30,0
	BREQ _0x200008A
	LDI  R30,LOW(233)
	ST   -Y,R30
	__GETD2N 0x40000000
	RCALL _send_cmd_G100
	CPI  R30,0
	BRNE _0x200008B
_0x200008A:
	RJMP _0x2000089
_0x200008B:
	RJMP _0x2000087
_0x2000089:
	LDS  R30,_timer1_G100
	CPI  R30,0
	BREQ _0x200008D
	LDI  R30,LOW(122)
	ST   -Y,R30
	__GETD2N 0x0
	RCALL _send_cmd_G100
	CPI  R30,0
	BREQ _0x200008E
_0x200008D:
	RJMP _0x200008C
_0x200008E:
	MOVW R26,R28
	ADIW R26,4
	RCALL _rx_spi4_G100
	LDD  R30,Y+4
	ANDI R30,LOW(0x40)
	BREQ _0x200008F
	LDI  R30,LOW(12)
	RJMP _0x2000090
_0x200008F:
	LDI  R30,LOW(4)
_0x2000090:
	MOV  R19,R30
_0x200008C:
_0x2000084:
	RJMP _0x2000092
_0x2000083:
	LDI  R30,LOW(233)
	ST   -Y,R30
	__GETD2N 0x0
	RCALL _send_cmd_G100
	CPI  R30,LOW(0x2)
	BRSH _0x2000093
	LDI  R19,LOW(2)
	LDI  R16,LOW(233)
	RJMP _0x2000094
_0x2000093:
	LDI  R19,LOW(1)
	LDI  R16,LOW(65)
_0x2000094:
_0x2000095:
	LDS  R30,_timer1_G100
	CPI  R30,0
	BREQ _0x2000098
	ST   -Y,R16
	__GETD2N 0x0
	RCALL _send_cmd_G100
	CPI  R30,0
	BRNE _0x2000099
_0x2000098:
	RJMP _0x2000097
_0x2000099:
	RJMP _0x2000095
_0x2000097:
	LDS  R30,_timer1_G100
	CPI  R30,0
	BREQ _0x200009B
	LDI  R30,LOW(80)
	ST   -Y,R30
	__GETD2N 0x200
	RCALL _send_cmd_G100
	CPI  R30,0
	BREQ _0x200009A
_0x200009B:
	LDI  R19,LOW(0)
_0x200009A:
_0x2000092:
_0x2000082:
	STS  _card_type_G100,R19
	RCALL _release_spi_G100
	CPI  R19,0
	BREQ _0x200009D
	LDS  R30,_status_G100
	ANDI R30,0xFE
	STS  _status_G100,R30
	LDI  R30,LOW(80)
	OUT  0xD,R30
	RJMP _0x200009E
_0x200009D:
	CBI  0x18,2
	RCALL _wait_ready_G100
	RCALL _release_spi_G100
	LDI  R30,LOW(0)
	OUT  0xD,R30
	IN   R30,0x17
	ANDI R30,LOW(0xC3)
	OUT  0x17,R30
	IN   R30,0x18
	ANDI R30,LOW(0xC3)
	OUT  0x18,R30
	CBI  0x17,2
	LDS  R30,_status_G100
	ORI  R30,1
	STS  _status_G100,R30
_0x200009E:
	LDS  R30,_status_G100
	RCALL __LOADLOCR4
	RJMP _0x206000D
_disk_status:
	ST   -Y,R26
	LD   R30,Y
	CPI  R30,0
	BREQ _0x200009F
	LDI  R30,LOW(1)
	RJMP _0x2060012
_0x200009F:
	LDS  R30,_status_G100
_0x2060012:
	ADIW R28,1
	RET
_disk_read:
	ST   -Y,R26
	LDD  R30,Y+7
	CPI  R30,0
	BRNE _0x20000A1
	LD   R30,Y
	CPI  R30,0
	BRNE _0x20000A0
_0x20000A1:
	LDI  R30,LOW(4)
	RJMP _0x2060009
_0x20000A0:
	LDS  R30,_status_G100
	ANDI R30,LOW(0x1)
	BREQ _0x20000A3
	LDI  R30,LOW(3)
	RJMP _0x2060009
_0x20000A3:
	LDS  R30,_card_type_G100
	ANDI R30,LOW(0x8)
	BRNE _0x20000A4
	__GETD1S 1
	__GETD2N 0x200
	RCALL __MULD12U
	__PUTD1S 1
_0x20000A4:
	LD   R26,Y
	CPI  R26,LOW(0x1)
	BRNE _0x20000A5
	LDI  R30,LOW(81)
	ST   -Y,R30
	__GETD2S 2
	RCALL _send_cmd_G100
	CPI  R30,0
	BRNE _0x20000A7
	LDD  R30,Y+5
	LDD  R31,Y+5+1
	ST   -Y,R31
	ST   -Y,R30
	LDI  R26,LOW(512)
	LDI  R27,HIGH(512)
	RCALL _rx_datablock_G100
	CPI  R30,0
	BRNE _0x20000A8
_0x20000A7:
	RJMP _0x20000A6
_0x20000A8:
	LDI  R30,LOW(0)
	ST   Y,R30
_0x20000A6:
	RJMP _0x20000A9
_0x20000A5:
	LDI  R30,LOW(82)
	ST   -Y,R30
	__GETD2S 2
	RCALL _send_cmd_G100
	CPI  R30,0
	BRNE _0x20000AA
_0x20000AC:
	LDD  R30,Y+5
	LDD  R31,Y+5+1
	ST   -Y,R31
	ST   -Y,R30
	LDI  R26,LOW(512)
	LDI  R27,HIGH(512)
	RCALL _rx_datablock_G100
	CPI  R30,0
	BREQ _0x20000AD
	LDD  R30,Y+5
	LDD  R31,Y+5+1
	SUBI R30,LOW(-512)
	SBCI R31,HIGH(-512)
	STD  Y+5,R30
	STD  Y+5+1,R31
	LD   R30,Y
	SUBI R30,LOW(1)
	ST   Y,R30
	BRNE _0x20000AC
_0x20000AD:
	LDI  R30,LOW(76)
	ST   -Y,R30
	__GETD2N 0x0
	RCALL _send_cmd_G100
_0x20000AA:
_0x20000A9:
	RCALL _release_spi_G100
	LD   R30,Y
	CPI  R30,0
	BREQ _0x20000AF
	LDI  R30,LOW(1)
	RJMP _0x20000B0
_0x20000AF:
	LDI  R30,LOW(0)
_0x20000B0:
	RJMP _0x2060009
_disk_timerproc:
	RCALL __SAVELOCR2
	LDS  R17,_timer1_G100
	CPI  R17,0
	BREQ _0x20000FA
	SUBI R17,LOW(1)
	STS  _timer1_G100,R17
_0x20000FA:
	LDS  R17,_timer2_G100
	CPI  R17,0
	BREQ _0x20000FB
	SUBI R17,LOW(1)
	STS  _timer2_G100,R17
_0x20000FB:
	LDS  R17,_pv_S100000B000
	IN   R30,0x13
	ANDI R30,LOW(0x1)
	MOV  R26,R30
	IN   R30,0x13
	ANDI R30,LOW(0x2)
	OR   R30,R26
	STS  _pv_S100000B000,R30
	CP   R30,R17
	BRNE _0x20000FC
	LDS  R16,_status_G100
	ANDI R30,LOW(0x1)
	BREQ _0x20000FD
	ORI  R16,LOW(4)
	RJMP _0x20000FE
_0x20000FD:
	ANDI R16,LOW(251)
_0x20000FE:
	LDS  R30,_pv_S100000B000
	ANDI R30,LOW(0x2)
	BREQ _0x20000FF
	ORI  R16,LOW(3)
	RJMP _0x2000100
_0x20000FF:
	ANDI R16,LOW(253)
_0x2000100:
	STS  _status_G100,R16
_0x20000FC:
	RCALL __LOADLOCR2P
	RET

	.CSEG
_mem_cpy_G101:
	RCALL SUBOPT_0x2
	RCALL __SAVELOCR4
	__GETWRS 16,17,8
	__GETWRS 18,19,6
_0x2020006:
	RCALL SUBOPT_0x3
	SBIW R30,1
	STD  Y+4,R30
	STD  Y+4+1,R31
	ADIW R30,1
	BREQ _0x2020008
	PUSH R17
	PUSH R16
	__ADDWRN 16,17,1
	MOVW R26,R18
	__ADDWRN 18,19,1
	LD   R30,X
	POP  R26
	POP  R27
	ST   X,R30
	RJMP _0x2020006
_0x2020008:
	RCALL __LOADLOCR4
	RJMP _0x206000F
_mem_set_G101:
	RCALL SUBOPT_0x2
	RCALL __SAVELOCR2
	__GETWRS 16,17,6
_0x202000C:
	RCALL SUBOPT_0x4
	SBIW R30,1
	STD  Y+2,R30
	STD  Y+2+1,R31
	ADIW R30,1
	BREQ _0x202000E
	PUSH R17
	PUSH R16
	__ADDWRN 16,17,1
	LDD  R30,Y+4
	POP  R26
	POP  R27
	ST   X,R30
	RJMP _0x202000C
_0x202000E:
	RCALL __LOADLOCR2
	RJMP _0x2060009
_mem_cmp_G101:
	RCALL SUBOPT_0x2
	RCALL __SAVELOCR6
	__GETWRS 16,17,10
	__GETWRS 18,19,8
	__GETWRN 20,21,0
_0x202000F:
	RCALL SUBOPT_0x5
	SBIW R30,1
	RCALL SUBOPT_0x6
	ADIW R30,1
	BREQ _0x2020012
	MOVW R26,R16
	__ADDWRN 16,17,1
	LD   R0,X
	CLR  R1
	MOVW R26,R18
	__ADDWRN 18,19,1
	LD   R26,X
	CLR  R27
	MOVW R30,R0
	SUB  R30,R26
	SBC  R31,R27
	MOVW R20,R30
	SBIW R30,0
	BREQ _0x2020013
_0x2020012:
	RJMP _0x2020011
_0x2020013:
	RJMP _0x202000F
_0x2020011:
	MOVW R30,R20
	RCALL __LOADLOCR6
	ADIW R28,12
	RET
_chk_chrf_G101:
	RCALL SUBOPT_0x2
_0x2020014:
	RCALL SUBOPT_0x4
	LPM  R30,Z
	CPI  R30,0
	BREQ _0x2020017
	RCALL SUBOPT_0x4
	LPM  R26,Z
	LD   R30,Y
	LDD  R31,Y+1
	LDI  R27,0
	CP   R30,R26
	CPC  R31,R27
	BRNE _0x2020018
_0x2020017:
	RJMP _0x2020016
_0x2020018:
	RCALL SUBOPT_0x4
	ADIW R30,1
	STD  Y+2,R30
	STD  Y+2+1,R31
	RJMP _0x2020014
_0x2020016:
	RCALL SUBOPT_0x4
	LPM  R30,Z
	LDI  R31,0
	RJMP _0x2060005
_move_window_G101:
	RCALL __PUTPARD2
	SBIW R28,4
	ST   -Y,R17
	LDD  R26,Y+9
	LDD  R27,Y+9+1
	ADIW R26,30
	RCALL __GETD1P
	__PUTD1S 1
	RCALL SUBOPT_0x7
	__GETD2S 1
	RCALL __CPD12
	BREQ _0x2020019
	RCALL SUBOPT_0x7
	RCALL __CPD10
	BREQ _0x202001A
	LDD  R30,Y+9
	LDD  R31,Y+9+1
	LDD  R26,Z+1
	ST   -Y,R26
	LDD  R30,Y+10
	LDD  R31,Y+10+1
	ADIW R30,34
	RCALL SUBOPT_0x1
	RCALL SUBOPT_0x8
	RCALL SUBOPT_0x9
	BREQ _0x202001B
	LDI  R30,LOW(1)
	RJMP _0x2060011
_0x202001B:
	RCALL SUBOPT_0x7
	__PUTD1SNS 9,30
_0x202001A:
_0x2020019:
	LDI  R30,LOW(0)
_0x2060011:
	LDD  R17,Y+0
	ADIW R28,11
	RET
_get_fat:
	RCALL __PUTPARD2
	SBIW R28,4
	RCALL __SAVELOCR4
	RCALL SUBOPT_0xA
	RCALL SUBOPT_0xB
	BRLO _0x202001D
	RCALL SUBOPT_0xC
	ADIW R26,14
	RCALL __GETD1P
	RCALL SUBOPT_0xA
	RCALL __CPD21
	BRLO _0x202001C
_0x202001D:
	__GETD1N 0x1
	RJMP _0x2060010
_0x202001C:
	RCALL SUBOPT_0xC
	ADIW R26,18
	RCALL __GETD1P
	__PUTD1S 4
	RCALL SUBOPT_0xC
	LD   R30,X
	LDI  R31,0
	CPI  R30,LOW(0x1)
	LDI  R26,HIGH(0x1)
	CPC  R31,R26
	BRNE _0x2020022
	__GETWRS 18,19,8
	MOVW R30,R18
	LSR  R31
	ROR  R30
	__ADDWRR 18,19,30,31
	RCALL SUBOPT_0xD
	BRNE _0x2020021
	RCALL SUBOPT_0xE
	LD   R16,X
	CLR  R17
	__ADDWRN 18,19,1
	RCALL SUBOPT_0xD
	BRNE _0x2020021
	RCALL SUBOPT_0xE
	LD   R30,X
	MOV  R31,R30
	LDI  R30,0
	__ORWRR 16,17,30,31
	LDD  R30,Y+8
	ANDI R30,LOW(0x1)
	BREQ _0x2020025
	MOVW R30,R16
	RCALL __LSRW4
	RJMP _0x20200C1
_0x2020025:
	MOVW R30,R16
	ANDI R31,HIGH(0xFFF)
_0x20200C1:
	CLR  R22
	CLR  R23
	RJMP _0x2060010
_0x2020022:
	CPI  R30,LOW(0x2)
	LDI  R26,HIGH(0x2)
	CPC  R31,R26
	BRNE _0x2020028
	RCALL SUBOPT_0xF
	__GETD1N 0x100
	RCALL SUBOPT_0x10
	BRNE _0x2020021
	RCALL SUBOPT_0x11
	LDI  R30,LOW(2)
	RCALL SUBOPT_0x12
	RCALL SUBOPT_0x13
	RJMP _0x2060010
_0x2020028:
	CPI  R30,LOW(0x3)
	LDI  R26,HIGH(0x3)
	CPC  R31,R26
	BRNE _0x2020021
	RCALL SUBOPT_0xF
	__GETD1N 0x80
	RCALL SUBOPT_0x10
	BRNE _0x2020021
	RCALL SUBOPT_0x11
	LDI  R30,LOW(4)
	RCALL SUBOPT_0x12
	RCALL __GETD1P
	__ANDD1N 0xFFFFFFF
	RJMP _0x2060010
_0x2020021:
	__GETD1N 0xFFFFFFFF
_0x2060010:
	RCALL __LOADLOCR4
	ADIW R28,14
	RET
_clust2sect:
	RCALL __PUTPARD2
	RCALL __GETD1S0
	__SUBD1N 2
	RCALL __PUTD1S0
	RCALL SUBOPT_0x3
	RCALL SUBOPT_0x14
	__GETD1N 0x2
	RCALL __SWAPD12
	RCALL __SUBD12
	RCALL SUBOPT_0x15
	RCALL __CPD21
	BRLO _0x202002C
	RCALL SUBOPT_0x16
	RJMP _0x2060008
_0x202002C:
	RCALL SUBOPT_0x3
	RCALL SUBOPT_0x17
	RCALL SUBOPT_0x15
	RCALL __CWD1
	RCALL __MULD12U
	PUSH R23
	PUSH R22
	PUSH R31
	PUSH R30
	RCALL SUBOPT_0x18
	ADIW R26,26
	RCALL __GETD1P
	POP  R26
	POP  R27
	POP  R24
	POP  R25
	RCALL __ADDD12
	RJMP _0x2060008
_dir_seek_G101:
	RCALL SUBOPT_0x2
	SBIW R28,4
	RCALL __SAVELOCR2
	RCALL SUBOPT_0x5
	__PUTW1SNS 8,4
	RCALL SUBOPT_0x11
	ADIW R26,6
	RCALL SUBOPT_0x19
	RCALL SUBOPT_0x1A
	__CPD2N 0x1
	BREQ _0x202002E
	RCALL SUBOPT_0x1B
	RCALL SUBOPT_0x1C
	BRLO _0x202002D
_0x202002E:
	LDI  R30,LOW(2)
	RJMP _0x206000E
_0x202002D:
	RCALL SUBOPT_0x1D
	BRNE _0x2020031
	RCALL SUBOPT_0x1B
	LD   R26,Z
	CPI  R26,LOW(0x3)
	BREQ _0x2020032
_0x2020031:
	RJMP _0x2020030
_0x2020032:
	RCALL SUBOPT_0x1B
	ADIW R30,22
	MOVW R26,R30
	RCALL SUBOPT_0x19
_0x2020030:
	RCALL SUBOPT_0x1D
	BRNE _0x2020033
	RCALL SUBOPT_0x1E
	ADIW R30,8
	MOVW R26,R30
	RCALL __GETW1P
	RCALL SUBOPT_0x1F
	CP   R26,R30
	CPC  R27,R31
	BRLO _0x2020034
	LDI  R30,LOW(2)
	RJMP _0x206000E
_0x2020034:
	RCALL SUBOPT_0x1B
	ADIW R30,22
	MOVW R26,R30
	RCALL __GETD1P
	RJMP _0x20200C2
_0x2020033:
	RCALL SUBOPT_0x1B
	LDD  R30,Z+2
	LDI  R26,LOW(16)
	MUL  R30,R26
	MOVW R16,R0
_0x2020036:
	RCALL SUBOPT_0x1F
	CP   R26,R16
	CPC  R27,R17
	BRLO _0x2020038
	RCALL SUBOPT_0x1B
	RCALL SUBOPT_0x20
	RCALL SUBOPT_0x21
	RCALL SUBOPT_0x22
	BRNE _0x2020039
	LDI  R30,LOW(1)
	RJMP _0x206000E
_0x2020039:
	RCALL SUBOPT_0x1A
	RCALL SUBOPT_0xB
	BRLO _0x202003B
	RCALL SUBOPT_0x1B
	RCALL SUBOPT_0x1C
	BRLO _0x202003A
_0x202003B:
	LDI  R30,LOW(2)
	RJMP _0x206000E
_0x202003A:
	RCALL SUBOPT_0x5
	SUB  R30,R16
	SBC  R31,R17
	RCALL SUBOPT_0x6
	RJMP _0x2020036
_0x2020038:
	RCALL SUBOPT_0x1E
	RCALL SUBOPT_0x20
	RCALL _clust2sect
_0x20200C2:
	MOVW R26,R30
	MOVW R24,R22
	RCALL SUBOPT_0x5
	RCALL __LSRW4
	RCALL SUBOPT_0x23
	RCALL __ADDD12
	__PUTD1SNS 8,14
	RCALL SUBOPT_0x1B
	ADIW R30,34
	MOVW R26,R30
	RCALL SUBOPT_0x5
	RCALL SUBOPT_0x24
	__PUTW1SNS 8,18
	LDI  R30,LOW(0)
_0x206000E:
	RCALL __LOADLOCR2
_0x206000F:
	ADIW R28,10
	RET
_dir_next_G101:
	ST   -Y,R26
	SBIW R28,4
	RCALL __SAVELOCR2
	RCALL SUBOPT_0x25
	ADIW R26,4
	RCALL __GETW1P
	ADIW R30,1
	MOVW R16,R30
	MOV  R0,R16
	OR   R0,R17
	BREQ _0x202003E
	RCALL SUBOPT_0x25
	ADIW R26,14
	RCALL __GETD1P
	RCALL __CPD10
	BRNE _0x202003D
_0x202003E:
	LDI  R30,LOW(4)
	RJMP _0x206000C
_0x202003D:
	MOVW R30,R16
	ANDI R30,LOW(0xF)
	BREQ PC+2
	RJMP _0x2020040
	RCALL SUBOPT_0x25
	ADIW R26,14
	RCALL __GETD1P_INC
	__SUBD1N -1
	RCALL __PUTDP1_DEC
	RCALL SUBOPT_0x25
	ADIW R26,10
	RCALL __GETD1P
	RCALL __CPD10
	BRNE _0x2020041
	RCALL SUBOPT_0x26
	ADIW R30,8
	MOVW R26,R30
	RCALL __GETW1P
	CP   R16,R30
	CPC  R17,R31
	BRLO _0x2020042
	LDI  R30,LOW(4)
	RJMP _0x206000C
_0x2020042:
	RJMP _0x2020043
_0x2020041:
	MOVW R30,R16
	RCALL __LSRW4
	MOVW R0,R30
	RCALL SUBOPT_0x26
	RCALL SUBOPT_0x17
	SBIW R30,1
	AND  R30,R0
	AND  R31,R1
	SBIW R30,0
	BRNE _0x2020044
	RCALL SUBOPT_0x26
	RCALL SUBOPT_0x1
	LDD  R30,Y+9
	LDD  R31,Y+9+1
	RCALL SUBOPT_0x27
	RCALL SUBOPT_0x21
	RCALL SUBOPT_0xB
	BRSH _0x2020045
	LDI  R30,LOW(2)
	RJMP _0x206000C
_0x2020045:
	RCALL SUBOPT_0x1A
	RCALL SUBOPT_0x22
	BRNE _0x2020046
	LDI  R30,LOW(1)
	RJMP _0x206000C
_0x2020046:
	RCALL SUBOPT_0x26
	RCALL SUBOPT_0x1C
	BRLO _0x2020047
	LDI  R30,LOW(4)
	RJMP _0x206000C
_0x2020047:
	__GETD1S 2
	__PUTD1SNS 7,10
	RCALL SUBOPT_0x26
	RCALL SUBOPT_0x20
	RCALL _clust2sect
	__PUTD1SNS 7,14
_0x2020044:
_0x2020043:
_0x2020040:
	MOVW R30,R16
	__PUTW1SNS 7,4
	RCALL SUBOPT_0x26
	ADIW R30,34
	MOVW R26,R30
	MOVW R30,R16
	RCALL SUBOPT_0x24
	__PUTW1SNS 7,18
	LDI  R30,LOW(0)
_0x206000C:
	RCALL __LOADLOCR2
_0x206000D:
	ADIW R28,9
	RET
_dir_find_G101:
	RCALL SUBOPT_0x2
	RCALL __SAVELOCR4
	RCALL SUBOPT_0x3
	RCALL SUBOPT_0x28
	LDI  R27,0
	RCALL _dir_seek_G101
	RCALL SUBOPT_0x29
	BREQ _0x2020048
	MOV  R30,R17
	RCALL __LOADLOCR4
	RJMP _0x2060008
_0x2020048:
_0x202004A:
	RCALL SUBOPT_0x18
	RCALL SUBOPT_0x2A
	RCALL SUBOPT_0x5
	RCALL SUBOPT_0x14
	RCALL _move_window_G101
	RCALL SUBOPT_0x29
	BRNE _0x202004B
	RCALL SUBOPT_0x18
	ADIW R26,18
	LD   R18,X+
	LD   R19,X
	MOVW R26,R18
	LD   R16,X
	CPI  R16,0
	BRNE _0x202004D
	LDI  R17,LOW(4)
	RJMP _0x202004B
_0x202004D:
	MOVW R30,R18
	LDD  R30,Z+11
	ANDI R30,LOW(0x8)
	BRNE _0x202004F
	ST   -Y,R19
	ST   -Y,R18
	RCALL SUBOPT_0x5
	LDD  R26,Z+20
	LDD  R27,Z+21
	RCALL SUBOPT_0x2
	LDI  R26,LOW(11)
	LDI  R27,0
	RCALL _mem_cmp_G101
	SBIW R30,0
	BREQ _0x2020050
_0x202004F:
	RJMP _0x202004E
_0x2020050:
	RJMP _0x202004B
_0x202004E:
	RCALL SUBOPT_0x3
	RCALL SUBOPT_0x28
	RCALL _dir_next_G101
	MOV  R17,R30
	CPI  R17,0
	BREQ _0x202004A
_0x202004B:
	MOV  R30,R17
	RCALL __LOADLOCR4
	RJMP _0x2060008
_create_name_G101:
	RCALL SUBOPT_0x2
	SBIW R28,5
	RCALL __SAVELOCR6
	LDD  R26,Y+13
	LDD  R27,Y+13+1
	ADIW R26,20
	LD   R20,X+
	LD   R21,X
	ST   -Y,R21
	ST   -Y,R20
	LDI  R30,LOW(32)
	LDI  R31,HIGH(32)
	RCALL SUBOPT_0x1
	LDI  R26,LOW(11)
	LDI  R27,0
	RCALL _mem_set_G101
	LDI  R30,LOW(0)
	STD  Y+8,R30
	STD  Y+8+1,R30
	MOV  R17,R30
	MOV  R18,R30
	LDI  R30,LOW(8)
	STD  Y+10,R30
	LDD  R26,Y+11
	LDD  R27,Y+11+1
	RCALL __GETW1P
	RCALL SUBOPT_0x6
_0x2020052:
	RCALL SUBOPT_0x2B
	ADIW R30,1
	STD  Y+8,R30
	STD  Y+8+1,R31
	SBIW R30,1
	RCALL SUBOPT_0x1F
	ADD  R26,R30
	ADC  R27,R31
	LD   R16,X
	CPI  R16,33
	BRLO _0x2020055
	CPI  R16,47
	BREQ _0x2020055
	CPI  R16,92
	BRNE _0x2020054
_0x2020055:
	RJMP _0x2020053
_0x2020054:
	CPI  R16,46
	BREQ _0x2020058
	LDD  R30,Y+10
	CP   R18,R30
	BRLO _0x2020057
_0x2020058:
	LDD  R26,Y+10
	CPI  R26,LOW(0x8)
	BRNE _0x202005B
	CPI  R16,46
	BREQ _0x202005A
_0x202005B:
	LDI  R30,LOW(6)
	RJMP _0x206000B
_0x202005A:
	LDI  R18,LOW(8)
	LDI  R30,LOW(11)
	STD  Y+10,R30
	LSL  R17
	LSL  R17
	RJMP _0x2020051
_0x2020057:
	CPI  R16,128
	BRLO _0x202005D
	ORI  R17,LOW(3)
	LDI  R30,LOW(6)
	RJMP _0x206000B
_0x202005D:
	LDI  R30,LOW(_k1*2)
	LDI  R31,HIGH(_k1*2)
	RCALL SUBOPT_0x1
	MOV  R26,R16
	CLR  R27
	RCALL _chk_chrf_G101
	SBIW R30,0
	BREQ _0x2020063
	LDI  R30,LOW(6)
	RJMP _0x206000B
_0x2020063:
	CPI  R16,65
	BRLO _0x2020065
	CPI  R16,91
	BRLO _0x2020066
_0x2020065:
	RJMP _0x2020064
_0x2020066:
	ORI  R17,LOW(2)
	RJMP _0x2020067
_0x2020064:
	CPI  R16,97
	BRLO _0x2020069
	CPI  R16,123
	BRLO _0x202006A
_0x2020069:
	RJMP _0x2020068
_0x202006A:
	ORI  R17,LOW(1)
	SUBI R16,LOW(32)
_0x2020068:
_0x2020067:
	RCALL SUBOPT_0x2C
	ST   Z,R16
_0x2020051:
	RJMP _0x2020052
_0x2020053:
	RCALL SUBOPT_0x2B
	RCALL SUBOPT_0x1F
	ADD  R30,R26
	ADC  R31,R27
	LDD  R26,Y+11
	LDD  R27,Y+11+1
	RCALL SUBOPT_0x2D
	CPI  R16,33
	BRSH _0x202006B
	LDI  R30,LOW(4)
	RJMP _0x202006C
_0x202006B:
	LDI  R30,LOW(0)
_0x202006C:
	MOV  R16,R30
	CPI  R18,0
	BRNE _0x202006E
	LDI  R30,LOW(6)
	RJMP _0x206000B
_0x202006E:
	MOVW R26,R20
	LD   R26,X
	CPI  R26,LOW(0xE5)
	BRNE _0x202006F
	MOVW R26,R20
	LDI  R30,LOW(5)
	ST   X,R30
_0x202006F:
	LDD  R26,Y+10
	CPI  R26,LOW(0x8)
	BRNE _0x2020070
	LSL  R17
	LSL  R17
_0x2020070:
	MOV  R30,R17
	ANDI R30,LOW(0x3)
	CPI  R30,LOW(0x1)
	BRNE _0x2020071
	ORI  R16,LOW(16)
_0x2020071:
	MOV  R30,R17
	ANDI R30,LOW(0xC)
	CPI  R30,LOW(0x4)
	BRNE _0x2020072
	ORI  R16,LOW(8)
_0x2020072:
	MOVW R30,R20
	__PUTBZR 16,11
	LDI  R30,LOW(0)
_0x206000B:
	RCALL __LOADLOCR6
	ADIW R28,15
	RET
_follow_path_G101:
	RCALL SUBOPT_0x2
	RCALL __SAVELOCR4
_0x2020073:
	LDI  R30,LOW(1)
	CPI  R30,0
	BREQ _0x2020076
	RCALL SUBOPT_0x18
	LD   R26,X
	CPI  R26,LOW(0x20)
	BREQ _0x2020077
_0x2020076:
	RJMP _0x2020075
_0x2020077:
	RCALL SUBOPT_0x2E
	RJMP _0x2020073
_0x2020075:
	RCALL SUBOPT_0x18
	LD   R26,X
	CPI  R26,LOW(0x2F)
	BREQ _0x2020079
	RCALL SUBOPT_0x18
	LD   R26,X
	CPI  R26,LOW(0x5C)
	BRNE _0x2020078
_0x2020079:
	RCALL SUBOPT_0x2E
_0x2020078:
	RCALL SUBOPT_0x1F
	ADIW R26,6
	RCALL SUBOPT_0x2F
	RCALL SUBOPT_0x18
	LD   R26,X
	CLR  R27
	SBIW R26,32
	BRSH _0x202007B
	RCALL SUBOPT_0x5
	RCALL SUBOPT_0x28
	LDI  R27,0
	RCALL _dir_seek_G101
	MOV  R17,R30
	RCALL SUBOPT_0x1F
	ADIW R26,18
	RCALL SUBOPT_0x30
	RJMP _0x202007C
_0x202007B:
_0x202007E:
	RCALL SUBOPT_0x31
	MOVW R26,R28
	ADIW R26,6
	RCALL _create_name_G101
	RCALL SUBOPT_0x29
	BRNE _0x202007F
	RCALL SUBOPT_0x1F
	RCALL _dir_find_G101
	MOV  R17,R30
	RCALL SUBOPT_0x1F
	ADIW R26,20
	RCALL __GETW1P
	LDD  R30,Z+11
	ANDI R30,LOW(0x4)
	MOV  R16,R30
	CPI  R17,0
	BREQ _0x2020081
	CPI  R17,4
	BRNE _0x2020083
	CPI  R16,0
	BREQ _0x2020084
_0x2020083:
	RJMP _0x2020082
_0x2020084:
	LDI  R17,LOW(5)
_0x2020082:
	RJMP _0x202007F
_0x2020081:
	CPI  R16,0
	BRNE _0x202007F
	RCALL SUBOPT_0x1F
	ADIW R26,18
	LD   R18,X+
	LD   R19,X
	MOVW R30,R18
	LDD  R30,Z+11
	ANDI R30,LOW(0x10)
	BRNE _0x2020086
	LDI  R17,LOW(5)
	RJMP _0x202007F
_0x2020086:
	MOVW R26,R18
	ADIW R26,20
	RCALL SUBOPT_0x13
	RCALL __LSLD16
	PUSH R23
	PUSH R22
	PUSH R31
	PUSH R30
	MOVW R26,R18
	ADIW R26,26
	RCALL __GETW1P
	POP  R26
	POP  R27
	POP  R24
	POP  R25
	RCALL SUBOPT_0x23
	RCALL __ORD12
	__PUTD1SNS 6,6
	RJMP _0x202007E
_0x202007F:
_0x202007C:
	MOV  R30,R17
_0x206000A:
	RCALL __LOADLOCR4
_0x2060009:
	ADIW R28,8
	RET
_check_fs_G101:
	RCALL __PUTPARD2
	RCALL SUBOPT_0x3
	LDD  R26,Z+1
	ST   -Y,R26
	LDD  R30,Y+5
	LDD  R31,Y+5+1
	ADIW R30,34
	RCALL SUBOPT_0x1
	__GETD1S 3
	RCALL SUBOPT_0x9
	BREQ _0x2020087
	LDI  R30,LOW(3)
	RJMP _0x2060008
_0x2020087:
	RCALL SUBOPT_0x3
	ADIW R30,34
	SUBI R30,LOW(-510)
	SBCI R31,HIGH(-510)
	MOVW R26,R30
	RCALL __GETW1P
	CPI  R30,LOW(0xAA55)
	LDI  R26,HIGH(0xAA55)
	CPC  R31,R26
	BREQ _0x2020088
	LDI  R30,LOW(2)
	RJMP _0x2060008
_0x2020088:
	RCALL SUBOPT_0x18
	SUBI R26,LOW(-88)
	SBCI R27,HIGH(-88)
	RCALL SUBOPT_0x32
	BRNE _0x2020089
	LDI  R30,LOW(0)
	RJMP _0x2060008
_0x2020089:
	RCALL SUBOPT_0x3
	ADIW R30,34
	SUBI R30,LOW(-82)
	SBCI R31,HIGH(-82)
	MOVW R26,R30
	RCALL SUBOPT_0x32
	BRNE _0x202008A
	LDI  R30,LOW(0)
	RJMP _0x2060008
_0x202008A:
	LDI  R30,LOW(1)
_0x2060008:
	ADIW R28,6
	RET
_chk_mounted:
	ST   -Y,R26
	SBIW R28,20
	RCALL __SAVELOCR6
	LDD  R26,Y+29
	LDD  R27,Y+29+1
	RCALL __GETW1P
	STD  Y+8,R30
	STD  Y+8+1,R31
	RCALL SUBOPT_0x11
	LD   R30,X
	SUBI R30,LOW(48)
	MOV  R16,R30
	CPI  R16,10
	BRSH _0x202008C
	RCALL SUBOPT_0x11
	ADIW R26,1
	LD   R26,X
	CPI  R26,LOW(0x3A)
	BREQ _0x202008D
_0x202008C:
	RJMP _0x202008B
_0x202008D:
	RCALL SUBOPT_0x2B
	ADIW R30,2
	STD  Y+8,R30
	STD  Y+8+1,R31
	RCALL SUBOPT_0x2B
	LDD  R26,Y+29
	LDD  R27,Y+29+1
	RCALL SUBOPT_0x2D
	RJMP _0x202008E
_0x202008B:
	LDI  R16,LOW(0)
_0x202008E:
	CPI  R16,1
	BRLO _0x202008F
	LDI  R30,LOW(11)
	RJMP _0x2060006
_0x202008F:
	MOV  R30,R16
	RCALL SUBOPT_0x33
	RCALL __GETW1P
	RCALL SUBOPT_0x6
	LDD  R26,Y+27
	LDD  R27,Y+27+1
	RCALL SUBOPT_0x2D
	RCALL SUBOPT_0x5
	SBIW R30,0
	BRNE _0x2020090
	LDI  R30,LOW(12)
	RJMP _0x2060006
_0x2020090:
	RCALL SUBOPT_0x1F
	LD   R30,X
	CPI  R30,0
	BREQ _0x2020091
	RCALL SUBOPT_0x5
	LDD  R26,Z+1
	RCALL _disk_status
	MOV  R21,R30
	SBRS R21,0
	RJMP _0x2060007
_0x2020091:
	RCALL SUBOPT_0x1F
	RCALL SUBOPT_0x34
	MOV  R30,R16
	__PUTB1SNS 6,1
	RCALL SUBOPT_0x5
	LDD  R26,Z+1
	RCALL _disk_initialize
	MOV  R21,R30
	SBRS R21,0
	RJMP _0x2020093
	LDI  R30,LOW(3)
	RJMP _0x2060006
_0x2020093:
	RCALL SUBOPT_0x31
	RCALL SUBOPT_0x16
	__PUTD1S 24
	MOVW R26,R30
	MOVW R24,R22
	RCALL _check_fs_G101
	MOV  R17,R30
	CPI  R17,1
	BRNE _0x2020094
	RCALL SUBOPT_0x5
	ADIW R30,34
	SUBI R30,LOW(-446)
	SBCI R31,HIGH(-446)
	MOVW R18,R30
	MOVW R30,R18
	LDD  R30,Z+4
	CPI  R30,0
	BREQ _0x2020095
	MOVW R26,R18
	ADIW R26,8
	RCALL __GETD1P
	__PUTD1S 22
	RCALL SUBOPT_0x31
	__GETD2S 24
	RCALL _check_fs_G101
	MOV  R17,R30
_0x2020095:
_0x2020094:
	CPI  R17,3
	BRNE _0x2020096
	LDI  R30,LOW(1)
	RJMP _0x2060006
_0x2020096:
	CPI  R17,0
	BRNE _0x2020098
	RCALL SUBOPT_0x1F
	ADIW R26,45
	RCALL __GETW1P
	CPI  R30,LOW(0x200)
	LDI  R26,HIGH(0x200)
	CPC  R31,R26
	BREQ _0x2020097
_0x2020098:
	LDI  R30,LOW(13)
	RJMP _0x2060006
_0x2020097:
	RCALL SUBOPT_0x1F
	ADIW R26,56
	RCALL SUBOPT_0x13
	RCALL SUBOPT_0x35
	RCALL SUBOPT_0x36
	RCALL __CPD10
	BRNE _0x202009A
	RCALL SUBOPT_0x1F
	SUBI R26,LOW(-70)
	SBCI R27,HIGH(-70)
	RCALL __GETD1P
	RCALL SUBOPT_0x35
_0x202009A:
	RCALL SUBOPT_0x36
	__PUTD1SNS 6,10
	RCALL SUBOPT_0x5
	LDD  R30,Z+50
	__PUTB1SNS 6,3
	RCALL SUBOPT_0x5
	LDD  R30,Z+3
	LDI  R31,0
	RCALL SUBOPT_0x37
	RCALL __CWD1
	RCALL __MULD12U
	RCALL SUBOPT_0x35
	RCALL SUBOPT_0x1F
	ADIW R26,48
	RCALL __GETW1P
	__GETD2S 22
	RCALL SUBOPT_0x23
	RCALL __ADDD12
	__PUTD1SNS 6,18
	RCALL SUBOPT_0x5
	LDD  R30,Z+47
	__PUTB1SNS 6,2
	RCALL SUBOPT_0x1F
	ADIW R26,51
	RCALL __GETW1P
	__PUTW1SNS 6,8
	RCALL SUBOPT_0x1F
	ADIW R26,53
	RCALL SUBOPT_0x13
	RCALL SUBOPT_0x38
	__GETD1S 14
	RCALL __CPD10
	BRNE _0x202009B
	RCALL SUBOPT_0x1F
	SUBI R26,LOW(-66)
	SBCI R27,HIGH(-66)
	RCALL __GETD1P
	RCALL SUBOPT_0x38
_0x202009B:
	RCALL SUBOPT_0x1F
	ADIW R26,48
	RCALL __GETW1P
	__GETD2S 14
	RCALL SUBOPT_0x23
	RCALL __SWAPD12
	RCALL __SUBD12
	RCALL SUBOPT_0x37
	RCALL __SUBD12
	PUSH R23
	PUSH R22
	PUSH R31
	PUSH R30
	RCALL SUBOPT_0x39
	POP  R26
	POP  R27
	POP  R24
	POP  R25
	RCALL SUBOPT_0x23
	RCALL __SUBD21
	RCALL SUBOPT_0x5
	RCALL SUBOPT_0x17
	RCALL __CWD1
	RCALL __DIVD21U
	__ADDD1N 2
	__PUTD1S 10
	__PUTD1SNS 6,14
	LDI  R17,LOW(1)
	RCALL SUBOPT_0x3A
	__CPD2N 0xFF7
	BRLO _0x202009C
	LDI  R17,LOW(2)
_0x202009C:
	RCALL SUBOPT_0x3A
	__CPD2N 0xFFF7
	BRLO _0x202009D
	LDI  R17,LOW(3)
_0x202009D:
	CPI  R17,3
	BRNE _0x202009E
	RCALL SUBOPT_0x1F
	SUBI R26,LOW(-78)
	SBCI R27,HIGH(-78)
	RCALL __GETD1P
	RJMP _0x20200C3
_0x202009E:
	RCALL SUBOPT_0x3B
_0x20200C3:
	__PUTD1SNS 6,22
	RCALL SUBOPT_0x3B
	PUSH R23
	PUSH R22
	PUSH R31
	PUSH R30
	RCALL SUBOPT_0x39
	POP  R26
	POP  R27
	POP  R24
	POP  R25
	RCALL SUBOPT_0x23
	RCALL __ADDD12
	__PUTD1SNS 6,26
	RCALL SUBOPT_0x1F
	ST   X,R17
	RCALL SUBOPT_0x1F
	ADIW R26,30
	RCALL SUBOPT_0x2F
	LDI  R26,LOW(_Fsid_G101)
	LDI  R27,HIGH(_Fsid_G101)
	LD   R30,X+
	LD   R31,X+
	ADIW R30,1
	ST   -X,R31
	ST   -X,R30
	__PUTW1SNS 6,6
_0x2060007:
	LDI  R30,LOW(0)
_0x2060006:
	RCALL __LOADLOCR6
	ADIW R28,31
	RET
_validate_G101:
	RCALL SUBOPT_0x2
	RCALL SUBOPT_0x4
	SBIW R30,0
	BREQ _0x20200A1
	LDD  R26,Y+2
	LDD  R27,Y+2+1
	LD   R30,X
	CPI  R30,0
	BREQ _0x20200A1
	RCALL SUBOPT_0x4
	LDD  R26,Z+6
	LDD  R27,Z+7
	LD   R30,Y
	LDD  R31,Y+1
	CP   R30,R26
	CPC  R31,R27
	BREQ _0x20200A0
_0x20200A1:
	LDI  R30,LOW(9)
	RJMP _0x2060005
_0x20200A0:
	RCALL SUBOPT_0x4
	LDD  R26,Z+1
	RCALL _disk_status
	ANDI R30,LOW(0x1)
	BREQ _0x20200A3
	LDI  R30,LOW(3)
	RJMP _0x2060005
_0x20200A3:
	LDI  R30,LOW(0)
_0x2060005:
	ADIW R28,4
	RET
_f_mount:
	RCALL SUBOPT_0x2
	RCALL __SAVELOCR2
	LDD  R26,Y+4
	CPI  R26,LOW(0x1)
	BRLO _0x20200A4
	LDI  R30,LOW(11)
	RJMP _0x2060004
_0x20200A4:
	LDD  R30,Y+4
	RCALL SUBOPT_0x33
	LD   R16,X+
	LD   R17,X
	MOV  R0,R16
	OR   R0,R17
	BREQ _0x20200A5
	MOVW R26,R16
	RCALL SUBOPT_0x34
_0x20200A5:
	RCALL SUBOPT_0x4
	SBIW R30,0
	BREQ _0x20200A6
	LDD  R26,Y+2
	LDD  R27,Y+2+1
	RCALL SUBOPT_0x34
_0x20200A6:
	LDD  R30,Y+4
	LDI  R26,LOW(_FatFs_G101)
	LDI  R27,HIGH(_FatFs_G101)
	LDI  R31,0
	LSL  R30
	ROL  R31
	ADD  R30,R26
	ADC  R31,R27
	LDD  R26,Y+2
	LDD  R27,Y+2+1
	STD  Z+0,R26
	STD  Z+1,R27
	LDI  R30,LOW(0)
_0x2060004:
	RCALL __LOADLOCR2
	ADIW R28,5
	RET
_f_open:
	ST   -Y,R26
	SBIW R28,34
	RCALL __SAVELOCR4
	RCALL SUBOPT_0x3C
	RCALL SUBOPT_0x30
	LDD  R30,Y+38
	ANDI R30,LOW(0x1)
	STD  Y+38,R30
	MOVW R30,R28
	ADIW R30,39
	RCALL SUBOPT_0x1
	MOVW R30,R28
	ADIW R30,18
	RCALL SUBOPT_0x28
	RCALL _chk_mounted
	RCALL SUBOPT_0x29
	BREQ _0x20200A7
	MOV  R30,R17
	RJMP _0x2060003
_0x20200A7:
	MOVW R30,R28
	ADIW R30,4
	STD  Y+36,R30
	STD  Y+36+1,R31
	MOVW R30,R28
	ADIW R30,16
	RCALL SUBOPT_0x1
	RCALL SUBOPT_0x3C
	RCALL _follow_path_G101
	RCALL SUBOPT_0x29
	BREQ _0x20200A8
	MOV  R30,R17
	RJMP _0x2060003
_0x20200A8:
	__GETWRS 18,19,34
	MOV  R0,R18
	OR   R0,R19
	BREQ _0x20200AA
	MOVW R30,R18
	LDD  R30,Z+11
	ANDI R30,LOW(0x10)
	BREQ _0x20200A9
_0x20200AA:
	LDI  R30,LOW(4)
	RJMP _0x2060003
_0x20200A9:
	LDD  R30,Y+38
	__PUTB1SNS 41,4
	MOVW R26,R18
	ADIW R26,20
	RCALL SUBOPT_0x13
	RCALL __LSLD16
	PUSH R23
	PUSH R22
	PUSH R31
	PUSH R30
	MOVW R26,R18
	ADIW R26,26
	RCALL __GETW1P
	POP  R26
	POP  R27
	POP  R24
	POP  R25
	RCALL SUBOPT_0x23
	RCALL __ORD12
	__PUTD1SNS 41,14
	MOVW R26,R18
	ADIW R26,28
	RCALL __GETD1P
	__PUTD1SNS 41,10
	RCALL SUBOPT_0x3C
	ADIW R26,6
	RCALL SUBOPT_0x2F
	RCALL SUBOPT_0x3C
	ADIW R26,5
	LDI  R30,LOW(255)
	ST   X,R30
	RCALL SUBOPT_0x3C
	ADIW R26,22
	RCALL SUBOPT_0x2F
	LDD  R30,Y+16
	LDD  R31,Y+16+1
	RCALL SUBOPT_0x3C
	RCALL SUBOPT_0x2D
	LDD  R26,Y+16
	LDD  R27,Y+16+1
	ADIW R26,6
	RCALL __GETW1P
	__PUTW1SNS 41,2
	LDI  R30,LOW(0)
_0x2060003:
	RCALL __LOADLOCR4
	ADIW R28,43
	RET
_f_read:
	RCALL SUBOPT_0x2
	SBIW R28,14
	RCALL __SAVELOCR6
	LDD  R30,Y+24
	LDD  R31,Y+24+1
	RCALL SUBOPT_0x6
	LDD  R26,Y+20
	LDD  R27,Y+20+1
	RCALL SUBOPT_0x30
	RCALL SUBOPT_0x3D
	RCALL SUBOPT_0x2A
	RCALL SUBOPT_0x3E
	RCALL SUBOPT_0x3F
	BREQ _0x20200AC
	MOV  R30,R17
	RJMP _0x2060002
_0x20200AC:
	LDD  R30,Y+26
	LDD  R31,Y+26+1
	LDD  R26,Z+4
	ANDI R26,LOW(0x80)
	BREQ _0x20200AD
	LDI  R30,LOW(2)
	RJMP _0x2060002
_0x20200AD:
	RCALL SUBOPT_0x40
	LDD  R26,Z+4
	ANDI R26,LOW(0x1)
	BRNE _0x20200AE
	LDI  R30,LOW(7)
	RJMP _0x2060002
_0x20200AE:
	RCALL SUBOPT_0x40
	RCALL SUBOPT_0x27
	PUSH R25
	PUSH R24
	PUSH R27
	PUSH R26
	RCALL SUBOPT_0x41
	POP  R30
	POP  R31
	POP  R22
	POP  R23
	RCALL __SUBD12
	__PUTD1S 8
	RCALL SUBOPT_0x8
	LDD  R26,Y+22
	LDD  R27,Y+22+1
	CLR  R24
	CLR  R25
	RCALL __CPD12
	BRSH _0x20200AF
	RCALL SUBOPT_0x2B
	STD  Y+22,R30
	STD  Y+22+1,R31
_0x20200AF:
_0x20200B1:
	LDD  R30,Y+22
	LDD  R31,Y+22+1
	SBIW R30,0
	BRNE PC+2
	RJMP _0x20200B2
	RCALL SUBOPT_0x41
	MOVW R30,R26
	MOVW R22,R24
	ANDI R31,HIGH(0x1FF)
	SBIW R30,0
	BREQ PC+2
	RJMP _0x20200B3
	RCALL SUBOPT_0x40
	LDD  R0,Z+5
	RCALL SUBOPT_0x3D
	RCALL __GETW1P
	LDD  R30,Z+2
	CP   R0,R30
	BRLO _0x20200B4
	RCALL SUBOPT_0x41
	RCALL __CPD02
	BRNE _0x20200B5
	RCALL SUBOPT_0x3D
	ADIW R26,14
	RCALL __GETD1P
	RJMP _0x20200B6
_0x20200B5:
	RCALL SUBOPT_0x3D
	RCALL SUBOPT_0x2A
	RCALL SUBOPT_0x42
	RCALL _get_fat
_0x20200B6:
	__PUTD1S 16
	RCALL SUBOPT_0x43
	RCALL SUBOPT_0xB
	BRSH _0x20200B8
	RCALL SUBOPT_0x44
	LDI  R30,LOW(2)
	RJMP _0x2060002
_0x20200B8:
	RCALL SUBOPT_0x43
	RCALL SUBOPT_0x22
	BRNE _0x20200B9
	RCALL SUBOPT_0x44
	LDI  R30,LOW(1)
	RJMP _0x2060002
_0x20200B9:
	__GETD1S 16
	__PUTD1SNS 26,18
	RCALL SUBOPT_0x3D
	ADIW R26,5
	RCALL SUBOPT_0x34
_0x20200B4:
	RCALL SUBOPT_0x3D
	RCALL SUBOPT_0x2A
	RCALL SUBOPT_0x42
	RCALL _clust2sect
	RCALL SUBOPT_0x45
	RCALL SUBOPT_0x46
	RCALL __CPD10
	BRNE _0x20200BA
	RCALL SUBOPT_0x44
	LDI  R30,LOW(2)
	RJMP _0x2060002
_0x20200BA:
	RCALL SUBOPT_0x47
	__GETD2S 12
	RCALL __CWD1
	RCALL __ADDD12
	RCALL SUBOPT_0x45
	LDD  R26,Y+22
	LDD  R27,Y+22+1
	LDI  R30,LOW(512)
	LDI  R31,HIGH(512)
	RCALL __DIVW21U
	MOVW R20,R30
	MOV  R0,R20
	OR   R0,R21
	BREQ _0x20200BB
	RCALL SUBOPT_0x47
	ADD  R30,R20
	ADC  R31,R21
	MOVW R0,R30
	RCALL SUBOPT_0x3D
	RCALL __GETW1P
	LDD  R30,Z+2
	MOVW R26,R0
	LDI  R31,0
	CP   R30,R26
	CPC  R31,R27
	BRSH _0x20200BC
	RCALL SUBOPT_0x3D
	RCALL __GETW1P
	RCALL SUBOPT_0x17
	MOVW R26,R30
	RCALL SUBOPT_0x47
	SUB  R26,R30
	SBC  R27,R31
	MOVW R20,R26
_0x20200BC:
	RCALL SUBOPT_0x3D
	RCALL __GETW1P
	LDD  R30,Z+1
	ST   -Y,R30
	LDD  R30,Y+7
	LDD  R31,Y+7+1
	RCALL SUBOPT_0x1
	__GETD1S 15
	RCALL __PUTPARD1
	MOV  R26,R20
	RCALL _disk_read
	CPI  R30,0
	BREQ _0x20200BD
	RCALL SUBOPT_0x44
	LDI  R30,LOW(1)
	RJMP _0x2060002
_0x20200BD:
	RCALL SUBOPT_0x3D
	ADIW R26,5
	LD   R30,X
	ADD  R30,R20
	ST   X,R30
	MOVW R30,R20
	LSL  R30
	ROL  R31
	MOV  R31,R30
	LDI  R30,0
	MOVW R18,R30
	RJMP _0x20200B0
_0x20200BB:
	RCALL SUBOPT_0x46
	__PUTD1SNS 26,22
	RCALL SUBOPT_0x3D
	ADIW R26,5
	LD   R30,X
	SUBI R30,-LOW(1)
	ST   X,R30
_0x20200B3:
	RCALL SUBOPT_0x3D
	ADIW R26,6
	RCALL __GETW1P
	ANDI R31,HIGH(0x1FF)
	LDI  R26,LOW(512)
	LDI  R27,HIGH(512)
	SUB  R26,R30
	SBC  R27,R31
	MOVW R18,R26
	LDD  R30,Y+22
	LDD  R31,Y+22+1
	CP   R30,R18
	CPC  R31,R19
	BRSH _0x20200BE
	__GETWRS 18,19,22
_0x20200BE:
	RCALL SUBOPT_0x3D
	RCALL SUBOPT_0x2A
	RCALL SUBOPT_0x3E
	__GETD2Z 22
	RCALL _move_window_G101
	CPI  R30,0
	BREQ _0x20200BF
	RCALL SUBOPT_0x44
	LDI  R30,LOW(1)
	RJMP _0x2060002
_0x20200BF:
	RCALL SUBOPT_0x31
	LDD  R26,Y+28
	LDD  R27,Y+28+1
	RCALL __GETW1P
	ADIW R30,34
	MOVW R0,R30
	ADIW R26,6
	RCALL __GETW1P
	ANDI R31,HIGH(0x1FF)
	ADD  R30,R0
	ADC  R31,R1
	RCALL SUBOPT_0x1
	MOVW R26,R18
	RCALL _mem_cpy_G101
_0x20200B0:
	MOVW R30,R18
	RCALL SUBOPT_0x1F
	ADD  R30,R26
	ADC  R31,R27
	RCALL SUBOPT_0x6
	RCALL SUBOPT_0x40
	ADIW R30,6
	MOVW R0,R30
	MOVW R26,R30
	RCALL __GETD1P
	MOVW R26,R30
	MOVW R24,R22
	MOVW R30,R18
	RCALL SUBOPT_0x23
	RCALL __ADDD12
	MOVW R26,R0
	RCALL __PUTDP1
	LDD  R26,Y+20
	LDD  R27,Y+20+1
	LD   R30,X+
	LD   R31,X+
	ADD  R30,R18
	ADC  R31,R19
	ST   -X,R31
	ST   -X,R30
	LDD  R30,Y+22
	LDD  R31,Y+22+1
	SUB  R30,R18
	SBC  R31,R19
	STD  Y+22,R30
	STD  Y+22+1,R31
	RJMP _0x20200B1
_0x20200B2:
	LDI  R30,LOW(0)
_0x2060002:
	RCALL __LOADLOCR6
	ADIW R28,28
	RET
_f_close:
	RCALL SUBOPT_0x2
	ST   -Y,R17
	LDD  R26,Y+1
	LDD  R27,Y+1+1
	RCALL SUBOPT_0x2A
	LDD  R30,Y+3
	LDD  R31,Y+3+1
	RCALL SUBOPT_0x3F
	BRNE _0x20200C0
	LDD  R26,Y+1
	LDD  R27,Y+1+1
	RCALL SUBOPT_0x30
_0x20200C0:
	MOV  R30,R17
_0x2060001:
	LDD  R17,Y+0
	ADIW R28,3
	RET

	.CSEG

	.DSEG
_prtc_get_time:
	.BYTE 0x2
_prtc_get_date:
	.BYTE 0x2
_status_G100:
	.BYTE 0x1
_timer1_G100:
	.BYTE 0x1
_timer2_G100:
	.BYTE 0x1
_card_type_G100:
	.BYTE 0x1
_pv_S100000B000:
	.BYTE 0x1
_FatFs_G101:
	.BYTE 0x2
_Fsid_G101:
	.BYTE 0x2

	.CSEG
;OPTIMIZER ADDED SUBROUTINE, CALLED 2 TIMES, CODE SIZE REDUCTION:1 WORDS
SUBOPT_0x0:
	MOVW R30,R28
	ADIW R30,20
	ST   -Y,R31
	ST   -Y,R30
	RET

;OPTIMIZER ADDED SUBROUTINE, CALLED 33 TIMES, CODE SIZE REDUCTION:30 WORDS
SUBOPT_0x1:
	ST   -Y,R31
	ST   -Y,R30
	RET

;OPTIMIZER ADDED SUBROUTINE, CALLED 13 TIMES, CODE SIZE REDUCTION:10 WORDS
SUBOPT_0x2:
	ST   -Y,R27
	ST   -Y,R26
	RET

;OPTIMIZER ADDED SUBROUTINE, CALLED 10 TIMES, CODE SIZE REDUCTION:7 WORDS
SUBOPT_0x3:
	LDD  R30,Y+4
	LDD  R31,Y+4+1
	RET

;OPTIMIZER ADDED SUBROUTINE, CALLED 9 TIMES, CODE SIZE REDUCTION:6 WORDS
SUBOPT_0x4:
	LDD  R30,Y+2
	LDD  R31,Y+2+1
	RET

;OPTIMIZER ADDED SUBROUTINE, CALLED 24 TIMES, CODE SIZE REDUCTION:21 WORDS
SUBOPT_0x5:
	LDD  R30,Y+6
	LDD  R31,Y+6+1
	RET

;OPTIMIZER ADDED SUBROUTINE, CALLED 6 TIMES, CODE SIZE REDUCTION:3 WORDS
SUBOPT_0x6:
	STD  Y+6,R30
	STD  Y+6+1,R31
	RET

;OPTIMIZER ADDED SUBROUTINE, CALLED 3 TIMES, CODE SIZE REDUCTION:4 WORDS
SUBOPT_0x7:
	__GETD1S 5
	RET

;OPTIMIZER ADDED SUBROUTINE, CALLED 2 TIMES, CODE SIZE REDUCTION:1 WORDS
SUBOPT_0x8:
	__GETD1S 8
	RET

;OPTIMIZER ADDED SUBROUTINE, CALLED 2 TIMES, CODE SIZE REDUCTION:1 WORDS
SUBOPT_0x9:
	RCALL __PUTPARD1
	LDI  R26,LOW(1)
	RCALL _disk_read
	CPI  R30,0
	RET

;OPTIMIZER ADDED SUBROUTINE, CALLED 2 TIMES, CODE SIZE REDUCTION:1 WORDS
SUBOPT_0xA:
	__GETD2S 8
	RET

;OPTIMIZER ADDED SUBROUTINE, CALLED 4 TIMES, CODE SIZE REDUCTION:16 WORDS
SUBOPT_0xB:
	__CPD2N 0x2
	RET

;OPTIMIZER ADDED SUBROUTINE, CALLED 7 TIMES, CODE SIZE REDUCTION:4 WORDS
SUBOPT_0xC:
	LDD  R26,Y+12
	LDD  R27,Y+12+1
	RET

;OPTIMIZER ADDED SUBROUTINE, CALLED 2 TIMES, CODE SIZE REDUCTION:13 WORDS
SUBOPT_0xD:
	LDD  R30,Y+12
	LDD  R31,Y+12+1
	RCALL SUBOPT_0x1
	MOVW R26,R18
	LDI  R30,LOW(512)
	LDI  R31,HIGH(512)
	RCALL __DIVW21U
	__GETD2S 6
	CLR  R22
	CLR  R23
	RCALL __ADDD21
	RCALL _move_window_G101
	CPI  R30,0
	RET

;OPTIMIZER ADDED SUBROUTINE, CALLED 2 TIMES, CODE SIZE REDUCTION:3 WORDS
SUBOPT_0xE:
	RCALL SUBOPT_0xC
	ADIW R26,34
	MOVW R30,R18
	ANDI R31,HIGH(0x1FF)
	ADD  R26,R30
	ADC  R27,R31
	RET

;OPTIMIZER ADDED SUBROUTINE, CALLED 2 TIMES, CODE SIZE REDUCTION:4 WORDS
SUBOPT_0xF:
	LDD  R30,Y+12
	LDD  R31,Y+12+1
	RCALL SUBOPT_0x1
	__GETD2S 10
	RET

;OPTIMIZER ADDED SUBROUTINE, CALLED 2 TIMES, CODE SIZE REDUCTION:5 WORDS
SUBOPT_0x10:
	RCALL __DIVD21U
	__GETD2S 6
	RCALL __ADDD21
	RCALL _move_window_G101
	CPI  R30,0
	RET

;OPTIMIZER ADDED SUBROUTINE, CALLED 15 TIMES, CODE SIZE REDUCTION:12 WORDS
SUBOPT_0x11:
	LDD  R26,Y+8
	LDD  R27,Y+8+1
	RET

;OPTIMIZER ADDED SUBROUTINE, CALLED 2 TIMES, CODE SIZE REDUCTION:3 WORDS
SUBOPT_0x12:
	RCALL __MULB1W2U
	ANDI R31,HIGH(0x1FF)
	RCALL SUBOPT_0xC
	ADIW R26,34
	ADD  R26,R30
	ADC  R27,R31
	RET

;OPTIMIZER ADDED SUBROUTINE, CALLED 5 TIMES, CODE SIZE REDUCTION:6 WORDS
SUBOPT_0x13:
	RCALL __GETW1P
	CLR  R22
	CLR  R23
	RET

;OPTIMIZER ADDED SUBROUTINE, CALLED 2 TIMES, CODE SIZE REDUCTION:1 WORDS
SUBOPT_0x14:
	__GETD2Z 14
	RET

;OPTIMIZER ADDED SUBROUTINE, CALLED 2 TIMES, CODE SIZE REDUCTION:1 WORDS
SUBOPT_0x15:
	RCALL __GETD2S0
	RET

;OPTIMIZER ADDED SUBROUTINE, CALLED 6 TIMES, CODE SIZE REDUCTION:13 WORDS
SUBOPT_0x16:
	__GETD1N 0x0
	RET

;OPTIMIZER ADDED SUBROUTINE, CALLED 4 TIMES, CODE SIZE REDUCTION:1 WORDS
SUBOPT_0x17:
	LDD  R30,Z+2
	LDI  R31,0
	RET

;OPTIMIZER ADDED SUBROUTINE, CALLED 8 TIMES, CODE SIZE REDUCTION:5 WORDS
SUBOPT_0x18:
	LDD  R26,Y+4
	LDD  R27,Y+4+1
	RET

;OPTIMIZER ADDED SUBROUTINE, CALLED 2 TIMES, CODE SIZE REDUCTION:2 WORDS
SUBOPT_0x19:
	RCALL __GETD1P
	__PUTD1S 2
	RET

;OPTIMIZER ADDED SUBROUTINE, CALLED 8 TIMES, CODE SIZE REDUCTION:19 WORDS
SUBOPT_0x1A:
	__GETD2S 2
	RET

;OPTIMIZER ADDED SUBROUTINE, CALLED 10 TIMES, CODE SIZE REDUCTION:7 WORDS
SUBOPT_0x1B:
	RCALL SUBOPT_0x11
	RCALL __GETW1P
	RET

;OPTIMIZER ADDED SUBROUTINE, CALLED 3 TIMES, CODE SIZE REDUCTION:6 WORDS
SUBOPT_0x1C:
	ADIW R30,14
	MOVW R26,R30
	RCALL __GETD1P
	RCALL SUBOPT_0x1A
	RCALL __CPD21
	RET

;OPTIMIZER ADDED SUBROUTINE, CALLED 2 TIMES, CODE SIZE REDUCTION:2 WORDS
SUBOPT_0x1D:
	__GETD1S 2
	RCALL __CPD10
	RET

;OPTIMIZER ADDED SUBROUTINE, CALLED 2 TIMES, CODE SIZE REDUCTION:8 WORDS
SUBOPT_0x1E:
	__GETD1S 2
	__PUTD1SNS 8,10
	RJMP SUBOPT_0x1B

;OPTIMIZER ADDED SUBROUTINE, CALLED 23 TIMES, CODE SIZE REDUCTION:20 WORDS
SUBOPT_0x1F:
	LDD  R26,Y+6
	LDD  R27,Y+6+1
	RET

;OPTIMIZER ADDED SUBROUTINE, CALLED 3 TIMES, CODE SIZE REDUCTION:6 WORDS
SUBOPT_0x20:
	RCALL SUBOPT_0x1
	__GETD2S 4
	RET

;OPTIMIZER ADDED SUBROUTINE, CALLED 2 TIMES, CODE SIZE REDUCTION:3 WORDS
SUBOPT_0x21:
	RCALL _get_fat
	__PUTD1S 2
	RJMP SUBOPT_0x1A

;OPTIMIZER ADDED SUBROUTINE, CALLED 3 TIMES, CODE SIZE REDUCTION:10 WORDS
SUBOPT_0x22:
	__CPD2N 0xFFFFFFFF
	RET

;OPTIMIZER ADDED SUBROUTINE, CALLED 8 TIMES, CODE SIZE REDUCTION:5 WORDS
SUBOPT_0x23:
	CLR  R22
	CLR  R23
	RET

;OPTIMIZER ADDED SUBROUTINE, CALLED 2 TIMES, CODE SIZE REDUCTION:3 WORDS
SUBOPT_0x24:
	ANDI R30,LOW(0xF)
	ANDI R31,HIGH(0xF)
	LSL  R30
	RCALL __LSLW4
	ADD  R30,R26
	ADC  R31,R27
	RET

;OPTIMIZER ADDED SUBROUTINE, CALLED 10 TIMES, CODE SIZE REDUCTION:7 WORDS
SUBOPT_0x25:
	LDD  R26,Y+7
	LDD  R27,Y+7+1
	RET

;OPTIMIZER ADDED SUBROUTINE, CALLED 6 TIMES, CODE SIZE REDUCTION:3 WORDS
SUBOPT_0x26:
	RCALL SUBOPT_0x25
	RCALL __GETW1P
	RET

;OPTIMIZER ADDED SUBROUTINE, CALLED 2 TIMES, CODE SIZE REDUCTION:1 WORDS
SUBOPT_0x27:
	__GETD2Z 10
	RET

;OPTIMIZER ADDED SUBROUTINE, CALLED 4 TIMES, CODE SIZE REDUCTION:1 WORDS
SUBOPT_0x28:
	RCALL SUBOPT_0x1
	LDI  R26,LOW(0)
	RET

;OPTIMIZER ADDED SUBROUTINE, CALLED 7 TIMES, CODE SIZE REDUCTION:4 WORDS
SUBOPT_0x29:
	MOV  R17,R30
	CPI  R17,0
	RET

;OPTIMIZER ADDED SUBROUTINE, CALLED 6 TIMES, CODE SIZE REDUCTION:3 WORDS
SUBOPT_0x2A:
	RCALL __GETW1P
	RJMP SUBOPT_0x1

;OPTIMIZER ADDED SUBROUTINE, CALLED 5 TIMES, CODE SIZE REDUCTION:2 WORDS
SUBOPT_0x2B:
	LDD  R30,Y+8
	LDD  R31,Y+8+1
	RET

;OPTIMIZER ADDED SUBROUTINE, CALLED 3 TIMES, CODE SIZE REDUCTION:6 WORDS
SUBOPT_0x2C:
	MOV  R30,R18
	SUBI R18,-1
	LDI  R31,0
	ADD  R30,R20
	ADC  R31,R21
	RET

;OPTIMIZER ADDED SUBROUTINE, CALLED 8 TIMES, CODE SIZE REDUCTION:5 WORDS
SUBOPT_0x2D:
	ST   X+,R30
	ST   X,R31
	RET

;OPTIMIZER ADDED SUBROUTINE, CALLED 2 TIMES, CODE SIZE REDUCTION:1 WORDS
SUBOPT_0x2E:
	RCALL SUBOPT_0x3
	ADIW R30,1
	STD  Y+4,R30
	STD  Y+4+1,R31
	RET

;OPTIMIZER ADDED SUBROUTINE, CALLED 4 TIMES, CODE SIZE REDUCTION:1 WORDS
SUBOPT_0x2F:
	RCALL SUBOPT_0x16
	RCALL __PUTDP1
	RET

;OPTIMIZER ADDED SUBROUTINE, CALLED 4 TIMES, CODE SIZE REDUCTION:4 WORDS
SUBOPT_0x30:
	LDI  R30,LOW(0)
	LDI  R31,HIGH(0)
	RJMP SUBOPT_0x2D

;OPTIMIZER ADDED SUBROUTINE, CALLED 4 TIMES, CODE SIZE REDUCTION:1 WORDS
SUBOPT_0x31:
	RCALL SUBOPT_0x5
	RJMP SUBOPT_0x1

;OPTIMIZER ADDED SUBROUTINE, CALLED 2 TIMES, CODE SIZE REDUCTION:9 WORDS
SUBOPT_0x32:
	RCALL __GETD1P
	__ANDD1N 0xFFFFFF
	__CPD1N 0x544146
	RET

;OPTIMIZER ADDED SUBROUTINE, CALLED 2 TIMES, CODE SIZE REDUCTION:4 WORDS
SUBOPT_0x33:
	LDI  R26,LOW(_FatFs_G101)
	LDI  R27,HIGH(_FatFs_G101)
	LDI  R31,0
	LSL  R30
	ROL  R31
	ADD  R26,R30
	ADC  R27,R31
	RET

;OPTIMIZER ADDED SUBROUTINE, CALLED 4 TIMES, CODE SIZE REDUCTION:1 WORDS
SUBOPT_0x34:
	LDI  R30,LOW(0)
	ST   X,R30
	RET

;OPTIMIZER ADDED SUBROUTINE, CALLED 3 TIMES, CODE SIZE REDUCTION:4 WORDS
SUBOPT_0x35:
	__PUTD1S 18
	RET

;OPTIMIZER ADDED SUBROUTINE, CALLED 4 TIMES, CODE SIZE REDUCTION:7 WORDS
SUBOPT_0x36:
	__GETD1S 18
	RET

;OPTIMIZER ADDED SUBROUTINE, CALLED 2 TIMES, CODE SIZE REDUCTION:1 WORDS
SUBOPT_0x37:
	__GETD2S 18
	RET

;OPTIMIZER ADDED SUBROUTINE, CALLED 2 TIMES, CODE SIZE REDUCTION:1 WORDS
SUBOPT_0x38:
	__PUTD1S 14
	RET

;OPTIMIZER ADDED SUBROUTINE, CALLED 2 TIMES, CODE SIZE REDUCTION:2 WORDS
SUBOPT_0x39:
	RCALL SUBOPT_0x5
	LDD  R26,Z+8
	LDD  R27,Z+9
	MOVW R30,R26
	RCALL __LSRW4
	RET

;OPTIMIZER ADDED SUBROUTINE, CALLED 2 TIMES, CODE SIZE REDUCTION:1 WORDS
SUBOPT_0x3A:
	__GETD2S 10
	RET

;OPTIMIZER ADDED SUBROUTINE, CALLED 2 TIMES, CODE SIZE REDUCTION:4 WORDS
SUBOPT_0x3B:
	RCALL SUBOPT_0x5
	__GETD2Z 18
	RCALL SUBOPT_0x36
	RCALL __ADDD12
	RET

;OPTIMIZER ADDED SUBROUTINE, CALLED 6 TIMES, CODE SIZE REDUCTION:3 WORDS
SUBOPT_0x3C:
	LDD  R26,Y+41
	LDD  R27,Y+41+1
	RET

;OPTIMIZER ADDED SUBROUTINE, CALLED 18 TIMES, CODE SIZE REDUCTION:15 WORDS
SUBOPT_0x3D:
	LDD  R26,Y+26
	LDD  R27,Y+26+1
	RET

;OPTIMIZER ADDED SUBROUTINE, CALLED 4 TIMES, CODE SIZE REDUCTION:1 WORDS
SUBOPT_0x3E:
	LDD  R30,Y+28
	LDD  R31,Y+28+1
	RET

;OPTIMIZER ADDED SUBROUTINE, CALLED 2 TIMES, CODE SIZE REDUCTION:1 WORDS
SUBOPT_0x3F:
	LDD  R26,Z+2
	LDD  R27,Z+3
	RCALL _validate_G101
	RJMP SUBOPT_0x29

;OPTIMIZER ADDED SUBROUTINE, CALLED 10 TIMES, CODE SIZE REDUCTION:7 WORDS
SUBOPT_0x40:
	LDD  R30,Y+26
	LDD  R31,Y+26+1
	RET

;OPTIMIZER ADDED SUBROUTINE, CALLED 3 TIMES, CODE SIZE REDUCTION:6 WORDS
SUBOPT_0x41:
	RCALL SUBOPT_0x40
	__GETD2Z 6
	RET

;OPTIMIZER ADDED SUBROUTINE, CALLED 2 TIMES, CODE SIZE REDUCTION:2 WORDS
SUBOPT_0x42:
	RCALL SUBOPT_0x3E
	__GETD2Z 18
	RET

;OPTIMIZER ADDED SUBROUTINE, CALLED 2 TIMES, CODE SIZE REDUCTION:1 WORDS
SUBOPT_0x43:
	__GETD2S 16
	RET

;OPTIMIZER ADDED SUBROUTINE, CALLED 5 TIMES, CODE SIZE REDUCTION:14 WORDS
SUBOPT_0x44:
	RCALL SUBOPT_0x3D
	ADIW R26,4
	LD   R30,X
	ORI  R30,0x80
	ST   X,R30
	RET

;OPTIMIZER ADDED SUBROUTINE, CALLED 2 TIMES, CODE SIZE REDUCTION:1 WORDS
SUBOPT_0x45:
	__PUTD1S 12
	RET

;OPTIMIZER ADDED SUBROUTINE, CALLED 2 TIMES, CODE SIZE REDUCTION:1 WORDS
SUBOPT_0x46:
	__GETD1S 12
	RET

;OPTIMIZER ADDED SUBROUTINE, CALLED 3 TIMES, CODE SIZE REDUCTION:2 WORDS
SUBOPT_0x47:
	RCALL SUBOPT_0x40
	LDD  R30,Z+5
	LDI  R31,0
	RET


	.CSEG
_delay_ms:
	adiw r26,0
	breq __delay_ms1
__delay_ms0:
	__DELAY_USW 0x7D0
	wdr
	sbiw r26,1
	brne __delay_ms0
__delay_ms1:
	ret

__ADDD12:
	ADD  R30,R26
	ADC  R31,R27
	ADC  R22,R24
	ADC  R23,R25
	RET

__ADDD21:
	ADD  R26,R30
	ADC  R27,R31
	ADC  R24,R22
	ADC  R25,R23
	RET

__SUBD12:
	SUB  R30,R26
	SBC  R31,R27
	SBC  R22,R24
	SBC  R23,R25
	RET

__SUBD21:
	SUB  R26,R30
	SBC  R27,R31
	SBC  R24,R22
	SBC  R25,R23
	RET

__ORD12:
	OR   R30,R26
	OR   R31,R27
	OR   R22,R24
	OR   R23,R25
	RET

__LSLW4:
	LSL  R30
	ROL  R31
__LSLW3:
	LSL  R30
	ROL  R31
__LSLW2:
	LSL  R30
	ROL  R31
	LSL  R30
	ROL  R31
	RET

__LSRW4:
	LSR  R31
	ROR  R30
__LSRW3:
	LSR  R31
	ROR  R30
__LSRW2:
	LSR  R31
	ROR  R30
	LSR  R31
	ROR  R30
	RET

__LSLD16:
	MOV  R22,R30
	MOV  R23,R31
	LDI  R30,0
	LDI  R31,0
	RET

__CWD1:
	MOV  R22,R31
	ADD  R22,R22
	SBC  R22,R22
	MOV  R23,R22
	RET

__MULD12U:
	MUL  R23,R26
	MOV  R23,R0
	MUL  R22,R27
	ADD  R23,R0
	MUL  R31,R24
	ADD  R23,R0
	MUL  R30,R25
	ADD  R23,R0
	MUL  R22,R26
	MOV  R22,R0
	ADD  R23,R1
	MUL  R31,R27
	ADD  R22,R0
	ADC  R23,R1
	MUL  R30,R24
	ADD  R22,R0
	ADC  R23,R1
	CLR  R24
	MUL  R31,R26
	MOV  R31,R0
	ADD  R22,R1
	ADC  R23,R24
	MUL  R30,R27
	ADD  R31,R0
	ADC  R22,R1
	ADC  R23,R24
	MUL  R30,R26
	MOV  R30,R0
	ADD  R31,R1
	ADC  R22,R24
	ADC  R23,R24
	RET

__MULB1W2U:
	MOV  R22,R30
	MUL  R22,R26
	MOVW R30,R0
	MUL  R22,R27
	ADD  R31,R0
	RET

__DIVW21U:
	CLR  R0
	CLR  R1
	LDI  R25,16
__DIVW21U1:
	LSL  R26
	ROL  R27
	ROL  R0
	ROL  R1
	SUB  R0,R30
	SBC  R1,R31
	BRCC __DIVW21U2
	ADD  R0,R30
	ADC  R1,R31
	RJMP __DIVW21U3
__DIVW21U2:
	SBR  R26,1
__DIVW21U3:
	DEC  R25
	BRNE __DIVW21U1
	MOVW R30,R26
	MOVW R26,R0
	RET

__DIVD21U:
	PUSH R19
	PUSH R20
	PUSH R21
	CLR  R0
	CLR  R1
	CLR  R20
	CLR  R21
	LDI  R19,32
__DIVD21U1:
	LSL  R26
	ROL  R27
	ROL  R24
	ROL  R25
	ROL  R0
	ROL  R1
	ROL  R20
	ROL  R21
	SUB  R0,R30
	SBC  R1,R31
	SBC  R20,R22
	SBC  R21,R23
	BRCC __DIVD21U2
	ADD  R0,R30
	ADC  R1,R31
	ADC  R20,R22
	ADC  R21,R23
	RJMP __DIVD21U3
__DIVD21U2:
	SBR  R26,1
__DIVD21U3:
	DEC  R19
	BRNE __DIVD21U1
	MOVW R30,R26
	MOVW R22,R24
	MOVW R26,R0
	MOVW R24,R20
	POP  R21
	POP  R20
	POP  R19
	RET

__GETW1P:
	LD   R30,X+
	LD   R31,X
	SBIW R26,1
	RET

__GETD1P:
	LD   R30,X+
	LD   R31,X+
	LD   R22,X+
	LD   R23,X
	SBIW R26,3
	RET

__GETD1P_INC:
	LD   R30,X+
	LD   R31,X+
	LD   R22,X+
	LD   R23,X+
	RET

__PUTDP1:
	ST   X+,R30
	ST   X+,R31
	ST   X+,R22
	ST   X,R23
	RET

__PUTDP1_DEC:
	ST   -X,R23
	ST   -X,R22
	ST   -X,R31
	ST   -X,R30
	RET

__GETD1S0:
	LD   R30,Y
	LDD  R31,Y+1
	LDD  R22,Y+2
	LDD  R23,Y+3
	RET

__GETD2S0:
	LD   R26,Y
	LDD  R27,Y+1
	LDD  R24,Y+2
	LDD  R25,Y+3
	RET

__PUTD1S0:
	ST   Y,R30
	STD  Y+1,R31
	STD  Y+2,R22
	STD  Y+3,R23
	RET

__PUTPARD1:
	ST   -Y,R23
	ST   -Y,R22
	ST   -Y,R31
	ST   -Y,R30
	RET

__PUTPARD2:
	ST   -Y,R25
	ST   -Y,R24
	ST   -Y,R27
	ST   -Y,R26
	RET

__SWAPD12:
	MOV  R1,R24
	MOV  R24,R22
	MOV  R22,R1
	MOV  R1,R25
	MOV  R25,R23
	MOV  R23,R1

__SWAPW12:
	MOV  R1,R27
	MOV  R27,R31
	MOV  R31,R1

__SWAPB12:
	MOV  R1,R26
	MOV  R26,R30
	MOV  R30,R1
	RET

__CPD10:
	SBIW R30,0
	SBCI R22,0
	SBCI R23,0
	RET

__CPD02:
	CLR  R0
	CP   R0,R26
	CPC  R0,R27
	CPC  R0,R24
	CPC  R0,R25
	RET

__CPD12:
	CP   R30,R26
	CPC  R31,R27
	CPC  R22,R24
	CPC  R23,R25
	RET

__CPD21:
	CP   R26,R30
	CPC  R27,R31
	CPC  R24,R22
	CPC  R25,R23
	RET

__SAVELOCR6:
	ST   -Y,R21
__SAVELOCR5:
	ST   -Y,R20
__SAVELOCR4:
	ST   -Y,R19
__SAVELOCR3:
	ST   -Y,R18
__SAVELOCR2:
	ST   -Y,R17
	ST   -Y,R16
	RET

__LOADLOCR6:
	LDD  R21,Y+5
__LOADLOCR5:
	LDD  R20,Y+4
__LOADLOCR4:
	LDD  R19,Y+3
__LOADLOCR3:
	LDD  R18,Y+2
__LOADLOCR2:
	LDD  R17,Y+1
	LD   R16,Y
	RET

__LOADLOCR2P:
	LD   R16,Y+
	LD   R17,Y+
	RET

;END OF CODE MARKER
__END_OF_CODE:
